---
triple:          'arm64-apple-darwin'
binary-path:     image
relocations:
  - { offsetInCU: 0x26, offset: 0x26, size: 0x8, addend: 0x0, symName: __ZN7GBitmap11setIsOpaqueENS_8IsOpaqueE, symObjAddr: 0x0, symBinAddr: 0x100001034, symSize: 0x90 }
  - { offsetInCU: 0x3084, offset: 0x3084, size: 0x8, addend: 0x0, symName: __ZN7GBitmap11setIsOpaqueENS_8IsOpaqueE, symObjAddr: 0x0, symBinAddr: 0x100001034, symSize: 0x90 }
  - { offsetInCU: 0x30B8, offset: 0x30B8, size: 0x8, addend: 0x0, symName: __ZN7GBitmap15computeIsOpaqueEv, symObjAddr: 0x90, symBinAddr: 0x1000010C4, symSize: 0x34 }
  - { offsetInCU: 0x30DC, offset: 0x30DC, size: 0x8, addend: 0x0, symName: __ZN7GBitmap5resetEiimPjNS_8IsOpaqueE, symObjAddr: 0xC4, symBinAddr: 0x1000010F8, symSize: 0x68 }
  - { offsetInCU: 0x3148, offset: 0x3148, size: 0x8, addend: 0x0, symName: __ZNK7GBitmap8validateEv, symObjAddr: 0x12C, symBinAddr: 0x100001160, symSize: 0x12C }
  - { offsetInCU: 0x316C, offset: 0x316C, size: 0x8, addend: 0x0, symName: __ZN7GBitmap15ComputeIsOpaqueERKS_, symObjAddr: 0x258, symBinAddr: 0x10000128C, symSize: 0x100 }
  - { offsetInCU: 0x31E4, offset: 0x31E4, size: 0x8, addend: 0x0, symName: __ZNK7GBitmap6heightEv, symObjAddr: 0x358, symBinAddr: 0x10000138C, symSize: 0x18 }
  - { offsetInCU: 0x3208, offset: 0x3208, size: 0x8, addend: 0x0, symName: __ZNK7GBitmap7getAddrEii, symObjAddr: 0x370, symBinAddr: 0x1000013A4, symSize: 0x148 }
  - { offsetInCU: 0x3248, offset: 0x3248, size: 0x8, addend: 0x0, symName: __ZNK7GBitmap5widthEv, symObjAddr: 0x4B8, symBinAddr: 0x1000014EC, symSize: 0x18 }
  - { offsetInCU: 0x326C, offset: 0x326C, size: 0x8, addend: 0x0, symName: __ZL11GPixel_GetAj, symObjAddr: 0x4D0, symBinAddr: 0x100001504, symSize: 0x1C }
  - { offsetInCU: 0x3298, offset: 0x3298, size: 0x8, addend: 0x0, symName: __ZN7GBitmap5allocEiim, symObjAddr: 0x4EC, symBinAddr: 0x100001520, symSize: 0x15C }
  - { offsetInCU: 0x32E8, offset: 0x32E8, size: 0x8, addend: 0x0, symName: __ZNK7GBitmap6pixelsEv, symObjAddr: 0x648, symBinAddr: 0x10000167C, symSize: 0x18 }
  - { offsetInCU: 0x330C, offset: 0x330C, size: 0x8, addend: 0x0, symName: __ZNK7GBitmap8rowBytesEv, symObjAddr: 0x660, symBinAddr: 0x100001694, symSize: 0x18 }
  - { offsetInCU: 0x26, offset: 0x336A, size: 0x8, addend: 0x0, symName: __ZNK7GBitmap11writeToFileEPKc, symObjAddr: 0x0, symBinAddr: 0x1000016AC, symSize: 0x194 }
  - { offsetInCU: 0x294D, offset: 0x5C91, size: 0x8, addend: 0x0, symName: __ZNK7GBitmap11writeToFileEPKc, symObjAddr: 0x0, symBinAddr: 0x1000016AC, symSize: 0x194 }
  - { offsetInCU: 0x29E3, offset: 0x5D27, size: 0x8, addend: 0x0, symName: __ZL12convertToPNGPKjiPh, symObjAddr: 0x1DC, symBinAddr: 0x100001840, symSize: 0x188 }
  - { offsetInCU: 0x2A97, offset: 0x5DDB, size: 0x8, addend: 0x0, symName: __ZN7GBitmap12readFromFileEPKc, symObjAddr: 0x37C, symBinAddr: 0x1000019C8, symSize: 0x140 }
  - { offsetInCU: 0x2B3B, offset: 0x5E7F, size: 0x8, addend: 0x0, symName: __ZL16swizzle_rgba_rowPjPKhi, symObjAddr: 0x4BC, symBinAddr: 0x100001B08, symSize: 0xD0 }
  - { offsetInCU: 0x2BB7, offset: 0x5EFB, size: 0x8, addend: 0x0, symName: __ZL11GPixel_GetAj, symObjAddr: 0x58C, symBinAddr: 0x100001BD8, symSize: 0x1C }
  - { offsetInCU: 0x2BE3, offset: 0x5F27, size: 0x8, addend: 0x0, symName: __ZL11GPixel_GetRj, symObjAddr: 0x5A8, symBinAddr: 0x100001BF4, symSize: 0x1C }
  - { offsetInCU: 0x2C0F, offset: 0x5F53, size: 0x8, addend: 0x0, symName: __ZL11GPixel_GetGj, symObjAddr: 0x5C4, symBinAddr: 0x100001C10, symSize: 0x1C }
  - { offsetInCU: 0x2C3B, offset: 0x5F7F, size: 0x8, addend: 0x0, symName: __ZL11GPixel_GetBj, symObjAddr: 0x5E0, symBinAddr: 0x100001C2C, symSize: 0x1C }
  - { offsetInCU: 0x2C67, offset: 0x5FAB, size: 0x8, addend: 0x0, symName: __ZL15GPixel_PackARGBjjjj, symObjAddr: 0x5FC, symBinAddr: 0x100001C48, symSize: 0x134 }
  - { offsetInCU: 0x2CBD, offset: 0x6001, size: 0x8, addend: 0x0, symName: __ZL9alpha_muljj, symObjAddr: 0x730, symBinAddr: 0x100001D7C, symSize: 0x2C }
  - { offsetInCU: 0x7D, offset: 0x60D6, size: 0x8, addend: 0x0, symName: __ZNSt3__18in_placeE, symObjAddr: 0x6185, symBinAddr: 0x10003E930, symSize: 0x0 }
  - { offsetInCU: 0x5718, offset: 0xB771, size: 0x8, addend: 0x0, symName: __ZNSt3__17advanceB8ue170006IP6GPointllvEEvRT_T0_, symObjAddr: 0x4CCC, symBinAddr: 0x100006A74, symSize: 0x38 }
  - { offsetInCU: 0x5783, offset: 0xB7DC, size: 0x8, addend: 0x0, symName: __ZNSt3__17advanceB8ue170006IPN5GPath4VerbEllvEEvRT_T0_, symObjAddr: 0x58A4, symBinAddr: 0x10000764C, symSize: 0x38 }
  - { offsetInCU: 0x6A17, offset: 0xCA70, size: 0x8, addend: 0x0, symName: __ZNSt3__112__to_addressB8ue170006I6GPointEEPT_S3_, symObjAddr: 0x13FC, symBinAddr: 0x1000031A4, symSize: 0x14 }
  - { offsetInCU: 0x6A4C, offset: 0xCAA5, size: 0x8, addend: 0x0, symName: __ZNSt3__13maxB8ue170006ImEERKT_S3_S3_, symObjAddr: 0x1818, symBinAddr: 0x1000035C0, symSize: 0x2C }
  - { offsetInCU: 0x6A8F, offset: 0xCAE8, size: 0x8, addend: 0x0, symName: __ZNSt3__13minB8ue170006ImEERKT_S3_S3_, symObjAddr: 0x1844, symBinAddr: 0x1000035EC, symSize: 0x2C }
  - { offsetInCU: 0x6CBC, offset: 0xCD15, size: 0x8, addend: 0x0, symName: __ZNSt3__13minB8ue170006ImNS_6__lessIvvEEEERKT_S5_S5_T0_, symObjAddr: 0x18DC, symBinAddr: 0x100003684, symSize: 0x54 }
  - { offsetInCU: 0x6D5B, offset: 0xCDB4, size: 0x8, addend: 0x0, symName: __ZNSt3__120__throw_length_errorB8ue170006EPKc, symObjAddr: 0x19B8, symBinAddr: 0x100003760, symSize: 0x64 }
  - { offsetInCU: 0x6D85, offset: 0xCDDE, size: 0x8, addend: 0x0, symName: __ZNSt3__13maxB8ue170006ImNS_6__lessIvvEEEERKT_S5_S5_T0_, symObjAddr: 0x1AFC, symBinAddr: 0x1000038A4, symSize: 0x54 }
  - { offsetInCU: 0x6DDF, offset: 0xCE38, size: 0x8, addend: 0x0, symName: __ZNSt3__119__allocate_at_leastB8ue170006INS_9allocatorI6GPointEEEENS_19__allocation_resultINS_16allocator_traitsIT_E7pointerEEERS6_m, symObjAddr: 0x1C60, symBinAddr: 0x100003A08, symSize: 0x40 }
  - { offsetInCU: 0x6E22, offset: 0xCE7B, size: 0x8, addend: 0x0, symName: __ZNSt3__117__libcpp_allocateB8ue170006Emm, symObjAddr: 0x1E00, symBinAddr: 0x100003BA8, symSize: 0x60 }
  - { offsetInCU: 0x6E7C, offset: 0xCED5, size: 0x8, addend: 0x0, symName: __ZNSt3__124__is_overaligned_for_newB8ue170006Em, symObjAddr: 0x1E60, symBinAddr: 0x100003C08, symSize: 0x20 }
  - { offsetInCU: 0x6EAA, offset: 0xCF03, size: 0x8, addend: 0x0, symName: __ZNSt3__121__libcpp_operator_newB8ue170006IJmSt11align_val_tEEEPvDpT_, symObjAddr: 0x1E80, symBinAddr: 0x100003C28, symSize: 0x2C }
  - { offsetInCU: 0x6EF7, offset: 0xCF50, size: 0x8, addend: 0x0, symName: __ZNSt3__121__libcpp_operator_newB8ue170006IJmEEEPvDpT_, symObjAddr: 0x1EAC, symBinAddr: 0x100003C54, symSize: 0x24 }
  - { offsetInCU: 0x6F30, offset: 0xCF89, size: 0x8, addend: 0x0, symName: __ZNSt3__142__uninitialized_allocator_move_if_noexceptB8ue170006INS_9allocatorI6GPointEENS_16reverse_iteratorIPS2_EES6_S2_vEET1_RT_T0_SA_S7_, symObjAddr: 0x1FEC, symBinAddr: 0x100003D94, symSize: 0x78 }
  - { offsetInCU: 0x6FAD, offset: 0xD006, size: 0x8, addend: 0x0, symName: __ZNSt3__14swapB8ue170006IP6GPointEENS_9enable_ifIXaasr21is_move_constructibleIT_EE5valuesr18is_move_assignableIS4_EE5valueEvE4typeERS4_S7_, symObjAddr: 0x20B0, symBinAddr: 0x100003E58, symSize: 0x3C }
  - { offsetInCU: 0x6FFE, offset: 0xD057, size: 0x8, addend: 0x0, symName: __ZNSt3__14moveB8ue170006INS_16reverse_iteratorIP6GPointEES4_EET0_T_S6_S5_, symObjAddr: 0x21B8, symBinAddr: 0x100003F60, symSize: 0x78 }
  - { offsetInCU: 0x7058, offset: 0xD0B1, size: 0x8, addend: 0x0, symName: __ZNSt3__16__moveB8ue170006INS_17_ClassicAlgPolicyENS_16reverse_iteratorIP6GPointEES5_S5_EENS_4pairIT0_T2_EES7_T1_S8_, symObjAddr: 0x2230, symBinAddr: 0x100003FD8, symSize: 0x64 }
  - { offsetInCU: 0x70C4, offset: 0xD11D, size: 0x8, addend: 0x0, symName: __ZNSt3__123__dispatch_copy_or_moveB8ue170006INS_17_ClassicAlgPolicyENS_11__move_loopIS1_EENS_14__move_trivialENS_16reverse_iteratorIP6GPointEES8_S8_EENS_4pairIT2_T4_EESA_T3_SB_, symObjAddr: 0x2294, symBinAddr: 0x10000403C, symSize: 0x64 }
  - { offsetInCU: 0x7142, offset: 0xD19B, size: 0x8, addend: 0x0, symName: __ZNSt3__121__unwrap_and_dispatchB8ue170006INS_10__overloadINS_11__move_loopINS_17_ClassicAlgPolicyEEENS_14__move_trivialEEENS_16reverse_iteratorIP6GPointEESA_SA_Li0EEENS_4pairIT0_T2_EESC_T1_SD_, symObjAddr: 0x22F8, symBinAddr: 0x1000040A0, symSize: 0x12C }
  - { offsetInCU: 0x71D2, offset: 0xD22B, size: 0x8, addend: 0x0, symName: __ZNSt3__114__unwrap_rangeB8ue170006INS_16reverse_iteratorIP6GPointEES4_EENS_4pairIT0_S6_EET_S8_, symObjAddr: 0x2424, symBinAddr: 0x1000041CC, symSize: 0x84 }
  - { offsetInCU: 0x738C, offset: 0xD3E5, size: 0x8, addend: 0x0, symName: __ZNSt3__113__unwrap_iterB8ue170006INS_16reverse_iteratorIP6GPointEENS_18__unwrap_iter_implIS4_Lb0EEELi0EEEDTclsrT0_8__unwrapclsr3stdE7declvalIT_EEEES8_, symObjAddr: 0x2548, symBinAddr: 0x1000042F0, symSize: 0x44 }
  - { offsetInCU: 0x73D0, offset: 0xD429, size: 0x8, addend: 0x0, symName: __ZNSt3__19make_pairB8ue170006INS_16reverse_iteratorIP6GPointEES4_EENS_4pairINS_18__unwrap_ref_decayIT_E4typeENS6_IT0_E4typeEEEOS7_OSA_, symObjAddr: 0x258C, symBinAddr: 0x100004334, symSize: 0x38 }
  - { offsetInCU: 0x741F, offset: 0xD478, size: 0x8, addend: 0x0, symName: __ZNSt3__114__rewrap_rangeB8ue170006INS_16reverse_iteratorIP6GPointEES4_EET_S5_T0_, symObjAddr: 0x25C4, symBinAddr: 0x10000436C, symSize: 0x5C }
  - { offsetInCU: 0x746B, offset: 0xD4C4, size: 0x8, addend: 0x0, symName: __ZNSt3__113__rewrap_iterB8ue170006INS_16reverse_iteratorIP6GPointEES4_NS_18__unwrap_iter_implIS4_Lb0EEEEET_S7_T0_, symObjAddr: 0x2620, symBinAddr: 0x1000043C8, symSize: 0x74 }
  - { offsetInCU: 0x74C0, offset: 0xD519, size: 0x8, addend: 0x0, symName: __ZNSt3__1neB8ue170006IP6GPointS2_EEbRKNS_16reverse_iteratorIT_EERKNS3_IT0_EE, symObjAddr: 0x2694, symBinAddr: 0x10000443C, symSize: 0x48 }
  - { offsetInCU: 0x75F1, offset: 0xD64A, size: 0x8, addend: 0x0, symName: __ZNSt3__119__libcpp_deallocateB8ue170006EPvmm, symObjAddr: 0x2A8C, symBinAddr: 0x100004834, symSize: 0x60 }
  - { offsetInCU: 0x7656, offset: 0xD6AF, size: 0x8, addend: 0x0, symName: __ZNSt3__127__do_deallocate_handle_sizeB8ue170006IJSt11align_val_tEEEvPvmDpT_, symObjAddr: 0x2AEC, symBinAddr: 0x100004894, symSize: 0x30 }
  - { offsetInCU: 0x76A9, offset: 0xD702, size: 0x8, addend: 0x0, symName: __ZNSt3__127__do_deallocate_handle_sizeB8ue170006IJEEEvPvmDpT_, symObjAddr: 0x2B1C, symBinAddr: 0x1000048C4, symSize: 0x28 }
  - { offsetInCU: 0x76E7, offset: 0xD740, size: 0x8, addend: 0x0, symName: __ZNSt3__124__libcpp_operator_deleteB8ue170006IJPvSt11align_val_tEEEvDpT_, symObjAddr: 0x2B44, symBinAddr: 0x1000048EC, symSize: 0x2C }
  - { offsetInCU: 0x7730, offset: 0xD789, size: 0x8, addend: 0x0, symName: __ZNSt3__124__libcpp_operator_deleteB8ue170006IJPvEEEvDpT_, symObjAddr: 0x2B70, symBinAddr: 0x100004918, symSize: 0x24 }
  - { offsetInCU: 0x7765, offset: 0xD7BE, size: 0x8, addend: 0x0, symName: __ZNSt3__112__to_addressB8ue170006IN5GPath4VerbEEEPT_S4_, symObjAddr: 0x2E40, symBinAddr: 0x100004BE8, symSize: 0x14 }
  - { offsetInCU: 0x779A, offset: 0xD7F3, size: 0x8, addend: 0x0, symName: __ZNSt3__119__allocate_at_leastB8ue170006INS_9allocatorIN5GPath4VerbEEEEENS_19__allocation_resultINS_16allocator_traitsIT_E7pointerEEERS7_m, symObjAddr: 0x343C, symBinAddr: 0x1000051E4, symSize: 0x40 }
  - { offsetInCU: 0x77DD, offset: 0xD836, size: 0x8, addend: 0x0, symName: __ZNSt3__142__uninitialized_allocator_move_if_noexceptB8ue170006INS_9allocatorIN5GPath4VerbEEENS_16reverse_iteratorIPS3_EES7_S3_vEET1_RT_T0_SB_S8_, symObjAddr: 0x36C4, symBinAddr: 0x10000546C, symSize: 0x78 }
  - { offsetInCU: 0x785A, offset: 0xD8B3, size: 0x8, addend: 0x0, symName: __ZNSt3__14swapB8ue170006IPN5GPath4VerbEEENS_9enable_ifIXaasr21is_move_constructibleIT_EE5valuesr18is_move_assignableIS5_EE5valueEvE4typeERS5_S8_, symObjAddr: 0x3788, symBinAddr: 0x100005530, symSize: 0x3C }
  - { offsetInCU: 0x78AB, offset: 0xD904, size: 0x8, addend: 0x0, symName: __ZNSt3__14moveB8ue170006INS_16reverse_iteratorIPN5GPath4VerbEEES5_EET0_T_S7_S6_, symObjAddr: 0x3890, symBinAddr: 0x100005638, symSize: 0x78 }
  - { offsetInCU: 0x7905, offset: 0xD95E, size: 0x8, addend: 0x0, symName: __ZNSt3__16__moveB8ue170006INS_17_ClassicAlgPolicyENS_16reverse_iteratorIPN5GPath4VerbEEES6_S6_EENS_4pairIT0_T2_EES8_T1_S9_, symObjAddr: 0x3908, symBinAddr: 0x1000056B0, symSize: 0x64 }
  - { offsetInCU: 0x7971, offset: 0xD9CA, size: 0x8, addend: 0x0, symName: __ZNSt3__123__dispatch_copy_or_moveB8ue170006INS_17_ClassicAlgPolicyENS_11__move_loopIS1_EENS_14__move_trivialENS_16reverse_iteratorIPN5GPath4VerbEEES9_S9_EENS_4pairIT2_T4_EESB_T3_SC_, symObjAddr: 0x396C, symBinAddr: 0x100005714, symSize: 0x64 }
  - { offsetInCU: 0x79EF, offset: 0xDA48, size: 0x8, addend: 0x0, symName: __ZNSt3__121__unwrap_and_dispatchB8ue170006INS_10__overloadINS_11__move_loopINS_17_ClassicAlgPolicyEEENS_14__move_trivialEEENS_16reverse_iteratorIPN5GPath4VerbEEESB_SB_Li0EEENS_4pairIT0_T2_EESD_T1_SE_, symObjAddr: 0x39D0, symBinAddr: 0x100005778, symSize: 0x12C }
  - { offsetInCU: 0x7A7F, offset: 0xDAD8, size: 0x8, addend: 0x0, symName: __ZNSt3__114__unwrap_rangeB8ue170006INS_16reverse_iteratorIPN5GPath4VerbEEES5_EENS_4pairIT0_S7_EET_S9_, symObjAddr: 0x3AFC, symBinAddr: 0x1000058A4, symSize: 0x84 }
  - { offsetInCU: 0x7B9F, offset: 0xDBF8, size: 0x8, addend: 0x0, symName: __ZNSt3__113__unwrap_iterB8ue170006INS_16reverse_iteratorIPN5GPath4VerbEEENS_18__unwrap_iter_implIS5_Lb0EEELi0EEEDTclsrT0_8__unwrapclsr3stdE7declvalIT_EEEES9_, symObjAddr: 0x3C20, symBinAddr: 0x1000059C8, symSize: 0x44 }
  - { offsetInCU: 0x7BE3, offset: 0xDC3C, size: 0x8, addend: 0x0, symName: __ZNSt3__19make_pairB8ue170006INS_16reverse_iteratorIPN5GPath4VerbEEES5_EENS_4pairINS_18__unwrap_ref_decayIT_E4typeENS7_IT0_E4typeEEEOS8_OSB_, symObjAddr: 0x3C64, symBinAddr: 0x100005A0C, symSize: 0x38 }
  - { offsetInCU: 0x7C32, offset: 0xDC8B, size: 0x8, addend: 0x0, symName: __ZNSt3__114__rewrap_rangeB8ue170006INS_16reverse_iteratorIPN5GPath4VerbEEES5_EET_S6_T0_, symObjAddr: 0x3C9C, symBinAddr: 0x100005A44, symSize: 0x5C }
  - { offsetInCU: 0x7C7E, offset: 0xDCD7, size: 0x8, addend: 0x0, symName: __ZNSt3__113__rewrap_iterB8ue170006INS_16reverse_iteratorIPN5GPath4VerbEEES5_NS_18__unwrap_iter_implIS5_Lb0EEEEET_S8_T0_, symObjAddr: 0x3CF8, symBinAddr: 0x100005AA0, symSize: 0x74 }
  - { offsetInCU: 0x7CD3, offset: 0xDD2C, size: 0x8, addend: 0x0, symName: __ZNSt3__1neB8ue170006IPN5GPath4VerbES3_EEbRKNS_16reverse_iteratorIT_EERKNS4_IT0_EE, symObjAddr: 0x3D6C, symBinAddr: 0x100005B14, symSize: 0x48 }
  - { offsetInCU: 0x7D8B, offset: 0xDDE4, size: 0x8, addend: 0x0, symName: __ZNSt3__18distanceB8ue170006IP6GPointEENS_15iterator_traitsIT_E15difference_typeES4_S4_, symObjAddr: 0x49D0, symBinAddr: 0x100006778, symSize: 0x2C }
  - { offsetInCU: 0x7DCE, offset: 0xDE27, size: 0x8, addend: 0x0, symName: __ZNSt3__14nextB8ue170006IP6GPointEENS_9enable_ifIXsr29__has_input_iterator_categoryIT_EE5valueES4_E4typeES4_NS_15iterator_traitsIS4_E15difference_typeE, symObjAddr: 0x49FC, symBinAddr: 0x1000067A4, symSize: 0x34 }
  - { offsetInCU: 0x7E11, offset: 0xDE6A, size: 0x8, addend: 0x0, symName: __ZNSt3__14copyB8ue170006IP6GPointS2_EET0_T_S4_S3_, symObjAddr: 0x4A30, symBinAddr: 0x1000067D8, symSize: 0x40 }
  - { offsetInCU: 0x7E6B, offset: 0xDEC4, size: 0x8, addend: 0x0, symName: __ZNSt3__16__copyB8ue170006INS_17_ClassicAlgPolicyEP6GPointS3_S3_EENS_4pairIT0_T2_EES5_T1_S6_, symObjAddr: 0x4AFC, symBinAddr: 0x1000068A4, symSize: 0x44 }
  - { offsetInCU: 0x7ED7, offset: 0xDF30, size: 0x8, addend: 0x0, symName: __ZNSt3__121__convert_to_integralB8ue170006El, symObjAddr: 0x4D04, symBinAddr: 0x100006AAC, symSize: 0x14 }
  - { offsetInCU: 0x7F03, offset: 0xDF5C, size: 0x8, addend: 0x0, symName: __ZNSt3__19__advanceB8ue170006IP6GPointEEvRT_NS_15iterator_traitsIS3_E15difference_typeENS_26random_access_iterator_tagE, symObjAddr: 0x4D18, symBinAddr: 0x100006AC0, symSize: 0x28 }
  - { offsetInCU: 0x7F4D, offset: 0xDFA6, size: 0x8, addend: 0x0, symName: __ZNSt3__130__uninitialized_allocator_copyB8ue170006INS_9allocatorI6GPointEEPS2_S4_S4_EET2_RT_T0_T1_S5_, symObjAddr: 0x4D40, symBinAddr: 0x100006AE8, symSize: 0x80 }
  - { offsetInCU: 0x7FEA, offset: 0xE043, size: 0x8, addend: 0x0, symName: __ZNSt3__114__unwrap_rangeB8ue170006IP6GPointS2_EENS_4pairIT0_S4_EET_S6_, symObjAddr: 0x4DC0, symBinAddr: 0x100006B68, symSize: 0x60 }
  - { offsetInCU: 0x8036, offset: 0xE08F, size: 0x8, addend: 0x0, symName: __ZNSt3__135__uninitialized_allocator_copy_implB8ue170006INS_9allocatorI6GPointEES2_S2_S2_LPv0EEEPT2_RT_PT0_SA_S6_, symObjAddr: 0x4E20, symBinAddr: 0x100006BC8, symSize: 0x38 }
  - { offsetInCU: 0x80B7, offset: 0xE110, size: 0x8, addend: 0x0, symName: __ZNSt3__113__unwrap_iterB8ue170006IP6GPointNS_18__unwrap_iter_implIS2_Lb1EEELi0EEEDTclsrT0_8__unwrapclsr3stdE7declvalIT_EEEES6_, symObjAddr: 0x4E58, symBinAddr: 0x100006C00, symSize: 0x24 }
  - { offsetInCU: 0x80FB, offset: 0xE154, size: 0x8, addend: 0x0, symName: __ZNSt3__113__rewrap_iterB8ue170006IP6GPointS2_NS_18__unwrap_iter_implIS2_Lb1EEEEET_S5_T0_, symObjAddr: 0x4E7C, symBinAddr: 0x100006C24, symSize: 0x3C }
  - { offsetInCU: 0x8150, offset: 0xE1A9, size: 0x8, addend: 0x0, symName: __ZNSt3__19make_pairB8ue170006IP6GPointS2_EENS_4pairINS_18__unwrap_ref_decayIT_E4typeENS4_IT0_E4typeEEEOS5_OS8_, symObjAddr: 0x4EB8, symBinAddr: 0x100006C60, symSize: 0x38 }
  - { offsetInCU: 0x82F5, offset: 0xE34E, size: 0x8, addend: 0x0, symName: __ZNSt3__123__dispatch_copy_or_moveB8ue170006INS_17_ClassicAlgPolicyENS_11__copy_loopIS1_EENS_14__copy_trivialEP6GPointS6_S6_EENS_4pairIT2_T4_EES8_T3_S9_, symObjAddr: 0x4FD4, symBinAddr: 0x100006D7C, symSize: 0x44 }
  - { offsetInCU: 0x8373, offset: 0xE3CC, size: 0x8, addend: 0x0, symName: __ZNSt3__121__unwrap_and_dispatchB8ue170006INS_10__overloadINS_11__copy_loopINS_17_ClassicAlgPolicyEEENS_14__copy_trivialEEEP6GPointS8_S8_Li0EEENS_4pairIT0_T2_EESA_T1_SB_, symObjAddr: 0x5018, symBinAddr: 0x100006DC0, symSize: 0xB4 }
  - { offsetInCU: 0x8483, offset: 0xE4DC, size: 0x8, addend: 0x0, symName: __ZNSt3__114__rewrap_rangeB8ue170006IP6GPointS2_EET_S3_T0_, symObjAddr: 0x5114, symBinAddr: 0x100006EBC, symSize: 0x2C }
  - { offsetInCU: 0x84CF, offset: 0xE528, size: 0x8, addend: 0x0, symName: __ZNSt3__119__copy_trivial_implB8ue170006I6GPointS1_EENS_4pairIPT_PT0_EES4_S4_S6_, symObjAddr: 0x5140, symBinAddr: 0x100006EE8, symSize: 0x80 }
  - { offsetInCU: 0x8537, offset: 0xE590, size: 0x8, addend: 0x0, symName: __ZNSt3__119__constexpr_memmoveB8ue170006I6GPointS1_Li0EEEPT_S3_PT0_NS_15__element_countE, symObjAddr: 0x51C0, symBinAddr: 0x100006F68, symSize: 0x64 }
  - { offsetInCU: 0x85A5, offset: 0xE5FE, size: 0x8, addend: 0x0, symName: __ZNSt3__19make_pairB8ue170006IRP6GPointS2_EENS_4pairINS_18__unwrap_ref_decayIT_E4typeENS5_IT0_E4typeEEEOS6_OS9_, symObjAddr: 0x5224, symBinAddr: 0x100006FCC, symSize: 0x38 }
  - { offsetInCU: 0x85F4, offset: 0xE64D, size: 0x8, addend: 0x0, symName: __ZNSt3__110__distanceB8ue170006IP6GPointEENS_15iterator_traitsIT_E15difference_typeES4_S4_NS_26random_access_iterator_tagE, symObjAddr: 0x5380, symBinAddr: 0x100007128, symSize: 0x28 }
  - { offsetInCU: 0x8642, offset: 0xE69B, size: 0x8, addend: 0x0, symName: __ZNSt3__18distanceB8ue170006IPN5GPath4VerbEEENS_15iterator_traitsIT_E15difference_typeES5_S5_, symObjAddr: 0x55A8, symBinAddr: 0x100007350, symSize: 0x2C }
  - { offsetInCU: 0x8685, offset: 0xE6DE, size: 0x8, addend: 0x0, symName: __ZNSt3__14nextB8ue170006IPN5GPath4VerbEEENS_9enable_ifIXsr29__has_input_iterator_categoryIT_EE5valueES5_E4typeES5_NS_15iterator_traitsIS5_E15difference_typeE, symObjAddr: 0x55D4, symBinAddr: 0x10000737C, symSize: 0x34 }
  - { offsetInCU: 0x86C8, offset: 0xE721, size: 0x8, addend: 0x0, symName: __ZNSt3__14copyB8ue170006IPN5GPath4VerbES3_EET0_T_S5_S4_, symObjAddr: 0x5608, symBinAddr: 0x1000073B0, symSize: 0x40 }
  - { offsetInCU: 0x8722, offset: 0xE77B, size: 0x8, addend: 0x0, symName: __ZNSt3__16__copyB8ue170006INS_17_ClassicAlgPolicyEPN5GPath4VerbES4_S4_EENS_4pairIT0_T2_EES6_T1_S7_, symObjAddr: 0x56D4, symBinAddr: 0x10000747C, symSize: 0x44 }
  - { offsetInCU: 0x878E, offset: 0xE7E7, size: 0x8, addend: 0x0, symName: __ZNSt3__19__advanceB8ue170006IPN5GPath4VerbEEEvRT_NS_15iterator_traitsIS4_E15difference_typeENS_26random_access_iterator_tagE, symObjAddr: 0x58DC, symBinAddr: 0x100007684, symSize: 0x28 }
  - { offsetInCU: 0x87D8, offset: 0xE831, size: 0x8, addend: 0x0, symName: __ZNSt3__130__uninitialized_allocator_copyB8ue170006INS_9allocatorIN5GPath4VerbEEEPS3_S5_S5_EET2_RT_T0_T1_S6_, symObjAddr: 0x5904, symBinAddr: 0x1000076AC, symSize: 0x80 }
  - { offsetInCU: 0x8875, offset: 0xE8CE, size: 0x8, addend: 0x0, symName: __ZNSt3__114__unwrap_rangeB8ue170006IPN5GPath4VerbES3_EENS_4pairIT0_S5_EET_S7_, symObjAddr: 0x5984, symBinAddr: 0x10000772C, symSize: 0x60 }
  - { offsetInCU: 0x88C1, offset: 0xE91A, size: 0x8, addend: 0x0, symName: __ZNSt3__135__uninitialized_allocator_copy_implB8ue170006INS_9allocatorIN5GPath4VerbEEES3_S3_S3_LPv0EEEPT2_RT_PT0_SB_S7_, symObjAddr: 0x59E4, symBinAddr: 0x10000778C, symSize: 0x38 }
  - { offsetInCU: 0x8942, offset: 0xE99B, size: 0x8, addend: 0x0, symName: __ZNSt3__113__unwrap_iterB8ue170006IPN5GPath4VerbENS_18__unwrap_iter_implIS3_Lb1EEELi0EEEDTclsrT0_8__unwrapclsr3stdE7declvalIT_EEEES7_, symObjAddr: 0x5A1C, symBinAddr: 0x1000077C4, symSize: 0x24 }
  - { offsetInCU: 0x8986, offset: 0xE9DF, size: 0x8, addend: 0x0, symName: __ZNSt3__113__rewrap_iterB8ue170006IPN5GPath4VerbES3_NS_18__unwrap_iter_implIS3_Lb1EEEEET_S6_T0_, symObjAddr: 0x5A40, symBinAddr: 0x1000077E8, symSize: 0x3C }
  - { offsetInCU: 0x89DB, offset: 0xEA34, size: 0x8, addend: 0x0, symName: __ZNSt3__19make_pairB8ue170006IPN5GPath4VerbES3_EENS_4pairINS_18__unwrap_ref_decayIT_E4typeENS5_IT0_E4typeEEEOS6_OS9_, symObjAddr: 0x5A7C, symBinAddr: 0x100007824, symSize: 0x38 }
  - { offsetInCU: 0x8B80, offset: 0xEBD9, size: 0x8, addend: 0x0, symName: __ZNSt3__123__dispatch_copy_or_moveB8ue170006INS_17_ClassicAlgPolicyENS_11__copy_loopIS1_EENS_14__copy_trivialEPN5GPath4VerbES7_S7_EENS_4pairIT2_T4_EES9_T3_SA_, symObjAddr: 0x5B98, symBinAddr: 0x100007940, symSize: 0x44 }
  - { offsetInCU: 0x8BFE, offset: 0xEC57, size: 0x8, addend: 0x0, symName: __ZNSt3__121__unwrap_and_dispatchB8ue170006INS_10__overloadINS_11__copy_loopINS_17_ClassicAlgPolicyEEENS_14__copy_trivialEEEPN5GPath4VerbES9_S9_Li0EEENS_4pairIT0_T2_EESB_T1_SC_, symObjAddr: 0x5BDC, symBinAddr: 0x100007984, symSize: 0xB4 }
  - { offsetInCU: 0x8C8C, offset: 0xECE5, size: 0x8, addend: 0x0, symName: __ZNSt3__114__rewrap_rangeB8ue170006IPN5GPath4VerbES3_EET_S4_T0_, symObjAddr: 0x5CD8, symBinAddr: 0x100007A80, symSize: 0x2C }
  - { offsetInCU: 0x8CD8, offset: 0xED31, size: 0x8, addend: 0x0, symName: __ZNSt3__119__copy_trivial_implB8ue170006IN5GPath4VerbES2_EENS_4pairIPT_PT0_EES5_S5_S7_, symObjAddr: 0x5D04, symBinAddr: 0x100007AAC, symSize: 0x80 }
  - { offsetInCU: 0x8D40, offset: 0xED99, size: 0x8, addend: 0x0, symName: __ZNSt3__119__constexpr_memmoveB8ue170006IN5GPath4VerbES2_Li0EEEPT_S4_PT0_NS_15__element_countE, symObjAddr: 0x5D84, symBinAddr: 0x100007B2C, symSize: 0x64 }
  - { offsetInCU: 0x8DAE, offset: 0xEE07, size: 0x8, addend: 0x0, symName: __ZNSt3__19make_pairB8ue170006IRPN5GPath4VerbES3_EENS_4pairINS_18__unwrap_ref_decayIT_E4typeENS6_IT0_E4typeEEEOS7_OSA_, symObjAddr: 0x5DE8, symBinAddr: 0x100007B90, symSize: 0x38 }
  - { offsetInCU: 0x8DFD, offset: 0xEE56, size: 0x8, addend: 0x0, symName: __ZNSt3__110__distanceB8ue170006IPN5GPath4VerbEEENS_15iterator_traitsIT_E15difference_typeES5_S5_NS_26random_access_iterator_tagE, symObjAddr: 0x5F44, symBinAddr: 0x100007CEC, symSize: 0x28 }
  - { offsetInCU: 0x92CE, offset: 0xF327, size: 0x8, addend: 0x0, symName: __ZSt28__throw_bad_array_new_lengthB8ue170006v, symObjAddr: 0x1DCC, symBinAddr: 0x100003B74, symSize: 0x34 }
  - { offsetInCU: 0xA16B, offset: 0x101C4, size: 0x8, addend: 0x0, symName: __ZNSt3__16vectorI6GPointNS_9allocatorIS1_EEE26__swap_out_circular_bufferERNS_14__split_bufferIS1_RS3_EE, symObjAddr: 0x1620, symBinAddr: 0x1000033C8, symSize: 0x110 }
  - { offsetInCU: 0xA1C8, offset: 0x10221, size: 0x8, addend: 0x0, symName: __ZNSt3__16vectorIN5GPath4VerbENS_9allocatorIS2_EEE26__swap_out_circular_bufferERNS_14__split_bufferIS2_RS4_EE, symObjAddr: 0x303C, symBinAddr: 0x100004DE4, symSize: 0x110 }
  - { offsetInCU: 0xBFDA, offset: 0x12033, size: 0x8, addend: 0x0, symName: __ZN5GPathC2Ev, symObjAddr: 0x0, symBinAddr: 0x100001DA8, symSize: 0x38 }
  - { offsetInCU: 0xC005, offset: 0x1205E, size: 0x8, addend: 0x0, symName: __ZNSt3__16vectorI6GPointNS_9allocatorIS1_EEEC1B8ue170006Ev, symObjAddr: 0x38, symBinAddr: 0x100001DE0, symSize: 0x2C }
  - { offsetInCU: 0xC02E, offset: 0x12087, size: 0x8, addend: 0x0, symName: __ZNSt3__16vectorIN5GPath4VerbENS_9allocatorIS2_EEEC1B8ue170006Ev, symObjAddr: 0x64, symBinAddr: 0x100001E0C, symSize: 0x2C }
  - { offsetInCU: 0xC057, offset: 0x120B0, size: 0x8, addend: 0x0, symName: __ZN5GPathC1Ev, symObjAddr: 0x90, symBinAddr: 0x100001E38, symSize: 0x2C }
  - { offsetInCU: 0xC082, offset: 0x120DB, size: 0x8, addend: 0x0, symName: __ZN5GPathD2Ev, symObjAddr: 0xBC, symBinAddr: 0x100001E64, symSize: 0x38 }
  - { offsetInCU: 0xC0AD, offset: 0x12106, size: 0x8, addend: 0x0, symName: __ZNSt3__16vectorIN5GPath4VerbENS_9allocatorIS2_EEED1B8ue170006Ev, symObjAddr: 0xF4, symBinAddr: 0x100001E9C, symSize: 0x2C }
  - { offsetInCU: 0xC0D6, offset: 0x1212F, size: 0x8, addend: 0x0, symName: __ZNSt3__16vectorI6GPointNS_9allocatorIS1_EEED1B8ue170006Ev, symObjAddr: 0x120, symBinAddr: 0x100001EC8, symSize: 0x2C }
  - { offsetInCU: 0xC0FF, offset: 0x12158, size: 0x8, addend: 0x0, symName: __ZN5GPathD1Ev, symObjAddr: 0x14C, symBinAddr: 0x100001EF4, symSize: 0x2C }
  - { offsetInCU: 0xC12A, offset: 0x12183, size: 0x8, addend: 0x0, symName: __ZN5GPathaSERKS_, symObjAddr: 0x178, symBinAddr: 0x100001F20, symSize: 0x64 }
  - { offsetInCU: 0xC15D, offset: 0x121B6, size: 0x8, addend: 0x0, symName: __ZNSt3__16vectorI6GPointNS_9allocatorIS1_EEEaSB8ue170006ERKS4_, symObjAddr: 0x1DC, symBinAddr: 0x100001F84, symSize: 0x68 }
  - { offsetInCU: 0xC193, offset: 0x121EC, size: 0x8, addend: 0x0, symName: __ZNSt3__16vectorIN5GPath4VerbENS_9allocatorIS2_EEEaSB8ue170006ERKS5_, symObjAddr: 0x244, symBinAddr: 0x100001FEC, symSize: 0x68 }
  - { offsetInCU: 0xC1CA, offset: 0x12223, size: 0x8, addend: 0x0, symName: __ZN5GPath5resetEv, symObjAddr: 0x2AC, symBinAddr: 0x100002054, symSize: 0x34 }
  - { offsetInCU: 0xC1F0, offset: 0x12249, size: 0x8, addend: 0x0, symName: __ZNSt3__16vectorI6GPointNS_9allocatorIS1_EEE5clearB8ue170006Ev, symObjAddr: 0x2E0, symBinAddr: 0x100002088, symSize: 0x44 }
  - { offsetInCU: 0xC223, offset: 0x1227C, size: 0x8, addend: 0x0, symName: __ZNSt3__16vectorIN5GPath4VerbENS_9allocatorIS2_EEE5clearB8ue170006Ev, symObjAddr: 0x324, symBinAddr: 0x1000020CC, symSize: 0x44 }
  - { offsetInCU: 0xC256, offset: 0x122AF, size: 0x8, addend: 0x0, symName: __ZNK5GPath4dumpEv, symObjAddr: 0x368, symBinAddr: 0x100002110, symSize: 0x1BC }
  - { offsetInCU: 0xC320, offset: 0x12379, size: 0x8, addend: 0x0, symName: __ZN5GPath4IterC1ERKS_, symObjAddr: 0x534, symBinAddr: 0x1000022DC, symSize: 0x34 }
  - { offsetInCU: 0xC359, offset: 0x123B2, size: 0x8, addend: 0x0, symName: __ZN5GPath4Iter4nextEP6GPoint, symObjAddr: 0x568, symBinAddr: 0x100002310, symSize: 0x1E4 }
  - { offsetInCU: 0xC39B, offset: 0x123F4, size: 0x8, addend: 0x0, symName: __ZNKSt3__18optionalIN5GPath4VerbEEcvbB8ue170006Ev, symObjAddr: 0x75C, symBinAddr: 0x100002504, symSize: 0x28 }
  - { offsetInCU: 0xC3BF, offset: 0x12418, size: 0x8, addend: 0x0, symName: __ZNRSt3__18optionalIN5GPath4VerbEEdeB8ue170006Ev, symObjAddr: 0x784, symBinAddr: 0x10000252C, symSize: 0x24 }
  - { offsetInCU: 0xC3E3, offset: 0x1243C, size: 0x8, addend: 0x0, symName: __ZN5GPath6quadToE6GPointS0_, symObjAddr: 0x7A8, symBinAddr: 0x100002550, symSize: 0xA0 }
  - { offsetInCU: 0xC425, offset: 0x1247E, size: 0x8, addend: 0x0, symName: __ZNKSt3__16vectorIN5GPath4VerbENS_9allocatorIS2_EEE4sizeB8ue170006Ev, symObjAddr: 0x848, symBinAddr: 0x1000025F0, symSize: 0x28 }
  - { offsetInCU: 0xC448, offset: 0x124A1, size: 0x8, addend: 0x0, symName: __ZNSt3__16vectorI6GPointNS_9allocatorIS1_EEE9push_backB8ue170006ERKS1_, symObjAddr: 0x870, symBinAddr: 0x100002618, symSize: 0x6C }
  - { offsetInCU: 0xC47E, offset: 0x124D7, size: 0x8, addend: 0x0, symName: __ZNSt3__16vectorIN5GPath4VerbENS_9allocatorIS2_EEE9push_backB8ue170006EOS2_, symObjAddr: 0x8DC, symBinAddr: 0x100002684, symSize: 0x6C }
  - { offsetInCU: 0xC4B5, offset: 0x1250E, size: 0x8, addend: 0x0, symName: __ZN5GPath7cubicToE6GPointS0_S0_, symObjAddr: 0x948, symBinAddr: 0x1000026F0, symSize: 0xB4 }
  - { offsetInCU: 0xC505, offset: 0x1255E, size: 0x8, addend: 0x0, symName: __ZN5GPath4IterC2ERKS_, symObjAddr: 0x9FC, symBinAddr: 0x1000027A4, symSize: 0x74 }
  - { offsetInCU: 0xC53E, offset: 0x12597, size: 0x8, addend: 0x0, symName: __ZNKSt3__16vectorI6GPointNS_9allocatorIS1_EEE4dataB8ue170006Ev, symObjAddr: 0xA70, symBinAddr: 0x100002818, symSize: 0x28 }
  - { offsetInCU: 0xC562, offset: 0x125BB, size: 0x8, addend: 0x0, symName: __ZNKSt3__16vectorIN5GPath4VerbENS_9allocatorIS2_EEE4dataB8ue170006Ev, symObjAddr: 0xA98, symBinAddr: 0x100002840, symSize: 0x28 }
  - { offsetInCU: 0xC586, offset: 0x125DF, size: 0x8, addend: 0x0, symName: __ZNSt3__18optionalIN5GPath4VerbEEC1B8ue170006Ev, symObjAddr: 0xAC0, symBinAddr: 0x100002868, symSize: 0x2C }
  - { offsetInCU: 0xC5B5, offset: 0x1260E, size: 0x8, addend: 0x0, symName: __ZNSt3__18optionalIN5GPath4VerbEEC1B8ue170006IS2_Li0EEEOT_, symObjAddr: 0xAEC, symBinAddr: 0x100002894, symSize: 0x34 }
  - { offsetInCU: 0xC601, offset: 0x1265A, size: 0x8, addend: 0x0, symName: __ZN5GPath5EdgerC2ERKS_, symObjAddr: 0xB20, symBinAddr: 0x1000028C8, symSize: 0x80 }
  - { offsetInCU: 0xC63A, offset: 0x12693, size: 0x8, addend: 0x0, symName: __ZN5GPath5EdgerC1ERKS_, symObjAddr: 0xBA0, symBinAddr: 0x100002948, symSize: 0x34 }
  - { offsetInCU: 0xC673, offset: 0x126CC, size: 0x8, addend: 0x0, symName: __ZN5GPath5Edger4nextEP6GPoint, symObjAddr: 0xBD4, symBinAddr: 0x10000297C, symSize: 0x300 }
  - { offsetInCU: 0xC6B5, offset: 0x1270E, size: 0x8, addend: 0x0, symName: __ZNKSt3__123__optional_storage_baseIN5GPath4VerbELb0EE9has_valueB8ue170006Ev, symObjAddr: 0xEE4, symBinAddr: 0x100002C8C, symSize: 0x1C }
  - { offsetInCU: 0xC6D9, offset: 0x12732, size: 0x8, addend: 0x0, symName: __ZNRSt3__123__optional_storage_baseIN5GPath4VerbELb0EE5__getB8ue170006Ev, symObjAddr: 0xF00, symBinAddr: 0x100002CA8, symSize: 0x14 }
  - { offsetInCU: 0xC6FD, offset: 0x12756, size: 0x8, addend: 0x0, symName: __ZNSt3__18optionalIN5GPath4VerbEEC2B8ue170006Ev, symObjAddr: 0xF14, symBinAddr: 0x100002CBC, symSize: 0x2C }
  - { offsetInCU: 0xC72B, offset: 0x12784, size: 0x8, addend: 0x0, symName: __ZNSt3__127__optional_move_assign_baseIN5GPath4VerbELb1EEC2Ev, symObjAddr: 0xF40, symBinAddr: 0x100002CE8, symSize: 0x2C }
  - { offsetInCU: 0xC75C, offset: 0x127B5, size: 0x8, addend: 0x0, symName: __ZNSt3__127__optional_copy_assign_baseIN5GPath4VerbELb1EEC2Ev, symObjAddr: 0xF6C, symBinAddr: 0x100002D14, symSize: 0x2C }
  - { offsetInCU: 0xC78D, offset: 0x127E6, size: 0x8, addend: 0x0, symName: __ZNSt3__120__optional_move_baseIN5GPath4VerbELb1EEC2Ev, symObjAddr: 0xF98, symBinAddr: 0x100002D40, symSize: 0x2C }
  - { offsetInCU: 0xC7BE, offset: 0x12817, size: 0x8, addend: 0x0, symName: __ZNSt3__120__optional_copy_baseIN5GPath4VerbELb1EEC2Ev, symObjAddr: 0xFC4, symBinAddr: 0x100002D6C, symSize: 0x2C }
  - { offsetInCU: 0xC7EA, offset: 0x12843, size: 0x8, addend: 0x0, symName: __ZNSt3__123__optional_storage_baseIN5GPath4VerbELb0EEC2Ev, symObjAddr: 0xFF0, symBinAddr: 0x100002D98, symSize: 0x2C }
  - { offsetInCU: 0xC816, offset: 0x1286F, size: 0x8, addend: 0x0, symName: __ZNSt3__124__optional_destruct_baseIN5GPath4VerbELb1EEC2B8ue170006Ev, symObjAddr: 0x101C, symBinAddr: 0x100002DC4, symSize: 0x1C }
  - { offsetInCU: 0xC83F, offset: 0x12898, size: 0x8, addend: 0x0, symName: __ZNSt3__18optionalIN5GPath4VerbEEC2B8ue170006IS2_Li0EEEOT_, symObjAddr: 0x1038, symBinAddr: 0x100002DE0, symSize: 0x34 }
  - { offsetInCU: 0xC886, offset: 0x128DF, size: 0x8, addend: 0x0, symName: __ZNSt3__127__optional_move_assign_baseIN5GPath4VerbELb1EECI2NS_24__optional_destruct_baseIS2_Lb1EEEIJS2_EEENS_10in_place_tEDpOT_, symObjAddr: 0x106C, symBinAddr: 0x100002E14, symSize: 0x34 }
  - { offsetInCU: 0xC8C4, offset: 0x1291D, size: 0x8, addend: 0x0, symName: __ZNSt3__127__optional_copy_assign_baseIN5GPath4VerbELb1EECI2NS_24__optional_destruct_baseIS2_Lb1EEEIJS2_EEENS_10in_place_tEDpOT_, symObjAddr: 0x10A0, symBinAddr: 0x100002E48, symSize: 0x34 }
  - { offsetInCU: 0xC902, offset: 0x1295B, size: 0x8, addend: 0x0, symName: __ZNSt3__120__optional_move_baseIN5GPath4VerbELb1EECI2NS_24__optional_destruct_baseIS2_Lb1EEEIJS2_EEENS_10in_place_tEDpOT_, symObjAddr: 0x10D4, symBinAddr: 0x100002E7C, symSize: 0x34 }
  - { offsetInCU: 0xC940, offset: 0x12999, size: 0x8, addend: 0x0, symName: __ZNSt3__120__optional_copy_baseIN5GPath4VerbELb1EECI2NS_24__optional_destruct_baseIS2_Lb1EEEIJS2_EEENS_10in_place_tEDpOT_, symObjAddr: 0x1108, symBinAddr: 0x100002EB0, symSize: 0x34 }
  - { offsetInCU: 0xC97E, offset: 0x129D7, size: 0x8, addend: 0x0, symName: __ZNSt3__123__optional_storage_baseIN5GPath4VerbELb0EECI2NS_24__optional_destruct_baseIS2_Lb1EEEIJS2_EEENS_10in_place_tEDpOT_, symObjAddr: 0x113C, symBinAddr: 0x100002EE4, symSize: 0x34 }
  - { offsetInCU: 0xC9BC, offset: 0x12A15, size: 0x8, addend: 0x0, symName: __ZNSt3__124__optional_destruct_baseIN5GPath4VerbELb1EEC2B8ue170006IJS2_EEENS_10in_place_tEDpOT_, symObjAddr: 0x1170, symBinAddr: 0x100002F18, symSize: 0x2C }
  - { offsetInCU: 0xCA0A, offset: 0x12A63, size: 0x8, addend: 0x0, symName: __ZNSt3__16vectorI6GPointNS_9allocatorIS1_EEE9__end_capB8ue170006Ev, symObjAddr: 0x119C, symBinAddr: 0x100002F44, symSize: 0x28 }
  - { offsetInCU: 0xCA2E, offset: 0x12A87, size: 0x8, addend: 0x0, symName: __ZNSt3__16vectorI6GPointNS_9allocatorIS1_EEE22__construct_one_at_endB8ue170006IJRKS1_EEEvDpOT_, symObjAddr: 0x11C4, symBinAddr: 0x100002F6C, symSize: 0x90 }
  - { offsetInCU: 0xCA7A, offset: 0x12AD3, size: 0x8, addend: 0x0, symName: __ZNSt3__16vectorI6GPointNS_9allocatorIS1_EEE21__push_back_slow_pathIRKS1_EEvOT_, symObjAddr: 0x1254, symBinAddr: 0x100002FFC, symSize: 0xD8 }
  - { offsetInCU: 0xCAD8, offset: 0x12B31, size: 0x8, addend: 0x0, symName: __ZNSt3__117__compressed_pairIP6GPointNS_9allocatorIS1_EEE5firstB8ue170006Ev, symObjAddr: 0x132C, symBinAddr: 0x1000030D4, symSize: 0x24 }
  - { offsetInCU: 0xCAFC, offset: 0x12B55, size: 0x8, addend: 0x0, symName: __ZNSt3__122__compressed_pair_elemIP6GPointLi0ELb0EE5__getB8ue170006Ev, symObjAddr: 0x1350, symBinAddr: 0x1000030F8, symSize: 0x14 }
  - { offsetInCU: 0xCB39, offset: 0x12B92, size: 0x8, addend: 0x0, symName: __ZNSt3__16vectorI6GPointNS_9allocatorIS1_EEE21_ConstructTransactionC1B8ue170006ERS4_m, symObjAddr: 0x1364, symBinAddr: 0x10000310C, symSize: 0x3C }
  - { offsetInCU: 0xCB80, offset: 0x12BD9, size: 0x8, addend: 0x0, symName: __ZNSt3__116allocator_traitsINS_9allocatorI6GPointEEE9constructB8ue170006IS2_JRKS2_EvEEvRS3_PT_DpOT0_, symObjAddr: 0x13A0, symBinAddr: 0x100003148, symSize: 0x34 }
  - { offsetInCU: 0xCBD7, offset: 0x12C30, size: 0x8, addend: 0x0, symName: __ZNSt3__16vectorI6GPointNS_9allocatorIS1_EEE7__allocB8ue170006Ev, symObjAddr: 0x13D4, symBinAddr: 0x10000317C, symSize: 0x28 }
  - { offsetInCU: 0xCBFB, offset: 0x12C54, size: 0x8, addend: 0x0, symName: __ZNSt3__16vectorI6GPointNS_9allocatorIS1_EEE21_ConstructTransactionD1B8ue170006Ev, symObjAddr: 0x1410, symBinAddr: 0x1000031B8, symSize: 0x2C }
  - { offsetInCU: 0xCC24, offset: 0x12C7D, size: 0x8, addend: 0x0, symName: __ZNSt3__16vectorI6GPointNS_9allocatorIS1_EEE21_ConstructTransactionC2B8ue170006ERS4_m, symObjAddr: 0x143C, symBinAddr: 0x1000031E4, symSize: 0x44 }
  - { offsetInCU: 0xCC6B, offset: 0x12CC4, size: 0x8, addend: 0x0, symName: __ZNSt3__19allocatorI6GPointE9constructB8ue170006IS1_JRKS1_EEEvPT_DpOT0_, symObjAddr: 0x1480, symBinAddr: 0x100003228, symSize: 0x28 }
  - { offsetInCU: 0xCCBF, offset: 0x12D18, size: 0x8, addend: 0x0, symName: __ZNSt3__117__compressed_pairIP6GPointNS_9allocatorIS1_EEE6secondB8ue170006Ev, symObjAddr: 0x14A8, symBinAddr: 0x100003250, symSize: 0x24 }
  - { offsetInCU: 0xCCE3, offset: 0x12D3C, size: 0x8, addend: 0x0, symName: __ZNSt3__122__compressed_pair_elemINS_9allocatorI6GPointEELi1ELb1EE5__getB8ue170006Ev, symObjAddr: 0x14CC, symBinAddr: 0x100003274, symSize: 0x14 }
  - { offsetInCU: 0xCD07, offset: 0x12D60, size: 0x8, addend: 0x0, symName: __ZNSt3__16vectorI6GPointNS_9allocatorIS1_EEE21_ConstructTransactionD2B8ue170006Ev, symObjAddr: 0x14E0, symBinAddr: 0x100003288, symSize: 0x20 }
  - { offsetInCU: 0xCD2F, offset: 0x12D88, size: 0x8, addend: 0x0, symName: __ZNKSt3__16vectorI6GPointNS_9allocatorIS1_EEE11__recommendB8ue170006Em, symObjAddr: 0x1500, symBinAddr: 0x1000032A8, symSize: 0xB4 }
  - { offsetInCU: 0xCD84, offset: 0x12DDD, size: 0x8, addend: 0x0, symName: __ZNKSt3__16vectorI6GPointNS_9allocatorIS1_EEE4sizeB8ue170006Ev, symObjAddr: 0x15B4, symBinAddr: 0x10000335C, symSize: 0x28 }
  - { offsetInCU: 0xCDA8, offset: 0x12E01, size: 0x8, addend: 0x0, symName: __ZNSt3__114__split_bufferI6GPointRNS_9allocatorIS1_EEEC1EmmS4_, symObjAddr: 0x15DC, symBinAddr: 0x100003384, symSize: 0x44 }
  - { offsetInCU: 0xCDFD, offset: 0x12E56, size: 0x8, addend: 0x0, symName: __ZNSt3__114__split_bufferI6GPointRNS_9allocatorIS1_EEED1Ev, symObjAddr: 0x1730, symBinAddr: 0x1000034D8, symSize: 0x2C }
  - { offsetInCU: 0xCE27, offset: 0x12E80, size: 0x8, addend: 0x0, symName: __ZNKSt3__16vectorI6GPointNS_9allocatorIS1_EEE8max_sizeEv, symObjAddr: 0x175C, symBinAddr: 0x100003504, symSize: 0x60 }
  - { offsetInCU: 0xCE4F, offset: 0x12EA8, size: 0x8, addend: 0x0, symName: __ZNKSt3__16vectorI6GPointNS_9allocatorIS1_EEE20__throw_length_errorB8ue170006Ev, symObjAddr: 0x17BC, symBinAddr: 0x100003564, symSize: 0x1C }
  - { offsetInCU: 0xCE73, offset: 0x12ECC, size: 0x8, addend: 0x0, symName: __ZNKSt3__16vectorI6GPointNS_9allocatorIS1_EEE8capacityB8ue170006Ev, symObjAddr: 0x17D8, symBinAddr: 0x100003580, symSize: 0x40 }
  - { offsetInCU: 0xCEA1, offset: 0x12EFA, size: 0x8, addend: 0x0, symName: __ZNSt3__116allocator_traitsINS_9allocatorI6GPointEEE8max_sizeB8ue170006IS3_vEEmRKS3_, symObjAddr: 0x1870, symBinAddr: 0x100003618, symSize: 0x24 }
  - { offsetInCU: 0xCECF, offset: 0x12F28, size: 0x8, addend: 0x0, symName: __ZNKSt3__16vectorI6GPointNS_9allocatorIS1_EEE7__allocB8ue170006Ev, symObjAddr: 0x1894, symBinAddr: 0x10000363C, symSize: 0x28 }
  - { offsetInCU: 0xCEF3, offset: 0x12F4C, size: 0x8, addend: 0x0, symName: __ZNSt3__114numeric_limitsIlE3maxB8ue170006Ev, symObjAddr: 0x18BC, symBinAddr: 0x100003664, symSize: 0x14 }
  - { offsetInCU: 0xCF1B, offset: 0x12F74, size: 0x8, addend: 0x0, symName: __ZNKSt3__16__lessIvvEclB8ue170006ImmEEbRKT_RKT0_, symObjAddr: 0x1930, symBinAddr: 0x1000036D8, symSize: 0x34 }
  - { offsetInCU: 0xCF6D, offset: 0x12FC6, size: 0x8, addend: 0x0, symName: __ZNKSt3__19allocatorI6GPointE8max_sizeB8ue170006Ev, symObjAddr: 0x1964, symBinAddr: 0x10000370C, symSize: 0x14 }
  - { offsetInCU: 0xCF91, offset: 0x12FEA, size: 0x8, addend: 0x0, symName: __ZNKSt3__117__compressed_pairIP6GPointNS_9allocatorIS1_EEE6secondB8ue170006Ev, symObjAddr: 0x1978, symBinAddr: 0x100003720, symSize: 0x24 }
  - { offsetInCU: 0xCFB5, offset: 0x1300E, size: 0x8, addend: 0x0, symName: __ZNKSt3__122__compressed_pair_elemINS_9allocatorI6GPointEELi1ELb1EE5__getB8ue170006Ev, symObjAddr: 0x199C, symBinAddr: 0x100003744, symSize: 0x14 }
  - { offsetInCU: 0xCFD9, offset: 0x13032, size: 0x8, addend: 0x0, symName: __ZNSt3__123__libcpp_numeric_limitsIlLb1EE3maxB8ue170006Ev, symObjAddr: 0x19B0, symBinAddr: 0x100003758, symSize: 0x8 }
  - { offsetInCU: 0xCFED, offset: 0x13046, size: 0x8, addend: 0x0, symName: __ZNSt12length_errorC1B8ue170006EPKc, symObjAddr: 0x1A1C, symBinAddr: 0x1000037C4, symSize: 0x34 }
  - { offsetInCU: 0xD024, offset: 0x1307D, size: 0x8, addend: 0x0, symName: __ZNSt12length_errorC2B8ue170006EPKc, symObjAddr: 0x1A50, symBinAddr: 0x1000037F8, symSize: 0x4C }
  - { offsetInCU: 0xD05B, offset: 0x130B4, size: 0x8, addend: 0x0, symName: __ZNKSt3__16vectorI6GPointNS_9allocatorIS1_EEE9__end_capB8ue170006Ev, symObjAddr: 0x1A9C, symBinAddr: 0x100003844, symSize: 0x28 }
  - { offsetInCU: 0xD07F, offset: 0x130D8, size: 0x8, addend: 0x0, symName: __ZNKSt3__117__compressed_pairIP6GPointNS_9allocatorIS1_EEE5firstB8ue170006Ev, symObjAddr: 0x1AC4, symBinAddr: 0x10000386C, symSize: 0x24 }
  - { offsetInCU: 0xD0A3, offset: 0x130FC, size: 0x8, addend: 0x0, symName: __ZNKSt3__122__compressed_pair_elemIP6GPointLi0ELb0EE5__getB8ue170006Ev, symObjAddr: 0x1AE8, symBinAddr: 0x100003890, symSize: 0x14 }
  - { offsetInCU: 0xD0C7, offset: 0x13120, size: 0x8, addend: 0x0, symName: __ZNSt3__114__split_bufferI6GPointRNS_9allocatorIS1_EEEC2EmmS4_, symObjAddr: 0x1B50, symBinAddr: 0x1000038F8, symSize: 0xD4 }
  - { offsetInCU: 0xD13F, offset: 0x13198, size: 0x8, addend: 0x0, symName: __ZNSt3__117__compressed_pairIP6GPointRNS_9allocatorIS1_EEEC1B8ue170006IDnS5_EEOT_OT0_, symObjAddr: 0x1C24, symBinAddr: 0x1000039CC, symSize: 0x3C }
  - { offsetInCU: 0xD196, offset: 0x131EF, size: 0x8, addend: 0x0, symName: __ZNSt3__114__split_bufferI6GPointRNS_9allocatorIS1_EEE7__allocB8ue170006Ev, symObjAddr: 0x1CA0, symBinAddr: 0x100003A48, symSize: 0x28 }
  - { offsetInCU: 0xD1BA, offset: 0x13213, size: 0x8, addend: 0x0, symName: __ZNSt3__114__split_bufferI6GPointRNS_9allocatorIS1_EEE9__end_capB8ue170006Ev, symObjAddr: 0x1CC8, symBinAddr: 0x100003A70, symSize: 0x28 }
  - { offsetInCU: 0xD1DE, offset: 0x13237, size: 0x8, addend: 0x0, symName: __ZNSt3__117__compressed_pairIP6GPointRNS_9allocatorIS1_EEEC2B8ue170006IDnS5_EEOT_OT0_, symObjAddr: 0x1CF0, symBinAddr: 0x100003A98, symSize: 0x48 }
  - { offsetInCU: 0xD235, offset: 0x1328E, size: 0x8, addend: 0x0, symName: __ZNSt3__122__compressed_pair_elemIP6GPointLi0ELb0EEC2B8ue170006IDnvEEOT_, symObjAddr: 0x1D38, symBinAddr: 0x100003AE0, symSize: 0x1C }
  - { offsetInCU: 0xD276, offset: 0x132CF, size: 0x8, addend: 0x0, symName: __ZNSt3__122__compressed_pair_elemIRNS_9allocatorI6GPointEELi1ELb0EEC2B8ue170006IS4_vEEOT_, symObjAddr: 0x1D54, symBinAddr: 0x100003AFC, symSize: 0x20 }
  - { offsetInCU: 0xD2B7, offset: 0x13310, size: 0x8, addend: 0x0, symName: __ZNSt3__19allocatorI6GPointE8allocateB8ue170006Em, symObjAddr: 0x1D74, symBinAddr: 0x100003B1C, symSize: 0x58 }
  - { offsetInCU: 0xD2E9, offset: 0x13342, size: 0x8, addend: 0x0, symName: __ZNSt3__117__compressed_pairIP6GPointRNS_9allocatorIS1_EEE6secondB8ue170006Ev, symObjAddr: 0x1ED0, symBinAddr: 0x100003C78, symSize: 0x28 }
  - { offsetInCU: 0xD30D, offset: 0x13366, size: 0x8, addend: 0x0, symName: __ZNSt3__122__compressed_pair_elemIRNS_9allocatorI6GPointEELi1ELb0EE5__getB8ue170006Ev, symObjAddr: 0x1EF8, symBinAddr: 0x100003CA0, symSize: 0x18 }
  - { offsetInCU: 0xD331, offset: 0x1338A, size: 0x8, addend: 0x0, symName: __ZNSt3__117__compressed_pairIP6GPointRNS_9allocatorIS1_EEE5firstB8ue170006Ev, symObjAddr: 0x1F10, symBinAddr: 0x100003CB8, symSize: 0x24 }
  - { offsetInCU: 0xD355, offset: 0x133AE, size: 0x8, addend: 0x0, symName: __ZNKSt3__16vectorI6GPointNS_9allocatorIS1_EEE17__annotate_deleteB8ue170006Ev, symObjAddr: 0x1F34, symBinAddr: 0x100003CDC, symSize: 0xB8 }
  - { offsetInCU: 0xD379, offset: 0x133D2, size: 0x8, addend: 0x0, symName: __ZNSt3__116reverse_iteratorIP6GPointEC1B8ue170006ES2_, symObjAddr: 0x2064, symBinAddr: 0x100003E0C, symSize: 0x34 }
  - { offsetInCU: 0xD3B0, offset: 0x13409, size: 0x8, addend: 0x0, symName: __ZNKSt3__116reverse_iteratorIP6GPointE4baseB8ue170006Ev, symObjAddr: 0x2098, symBinAddr: 0x100003E40, symSize: 0x18 }
  - { offsetInCU: 0xD3D4, offset: 0x1342D, size: 0x8, addend: 0x0, symName: __ZNKSt3__16vectorI6GPointNS_9allocatorIS1_EEE14__annotate_newB8ue170006Em, symObjAddr: 0x20EC, symBinAddr: 0x100003E94, symSize: 0xAC }
  - { offsetInCU: 0xD407, offset: 0x13460, size: 0x8, addend: 0x0, symName: __ZNKSt3__16vectorI6GPointNS_9allocatorIS1_EEE31__annotate_contiguous_containerB8ue170006EPKvS6_S6_S6_, symObjAddr: 0x2198, symBinAddr: 0x100003F40, symSize: 0x20 }
  - { offsetInCU: 0xD47B, offset: 0x134D4, size: 0x8, addend: 0x0, symName: __ZNKSt3__111__move_loopINS_17_ClassicAlgPolicyEEclB8ue170006INS_16reverse_iteratorIP6GPointEES7_S7_EENS_4pairIT_T1_EES9_T0_SA_, symObjAddr: 0x24A8, symBinAddr: 0x100004250, symSize: 0xA0 }
  - { offsetInCU: 0xD4EA, offset: 0x13543, size: 0x8, addend: 0x0, symName: __ZNSt3__18_IterOpsINS_17_ClassicAlgPolicyEE11__iter_moveB8ue170006IRNS_16reverse_iteratorIP6GPointEEEENS_9enable_ifIXsr12is_referenceIDTdeclsr3stdE7declvalIRT_EEEEE5valueEDTclsr3stdE4movedeclsr3stdE7declvalISB_EEEEE4typeEOSA_, symObjAddr: 0x26DC, symBinAddr: 0x100004484, symSize: 0x28 }
  - { offsetInCU: 0xD516, offset: 0x1356F, size: 0x8, addend: 0x0, symName: __ZNKSt3__116reverse_iteratorIP6GPointEdeB8ue170006Ev, symObjAddr: 0x2704, symBinAddr: 0x1000044AC, symSize: 0x28 }
  - { offsetInCU: 0xD548, offset: 0x135A1, size: 0x8, addend: 0x0, symName: __ZNSt3__116reverse_iteratorIP6GPointEppB8ue170006Ev, symObjAddr: 0x272C, symBinAddr: 0x1000044D4, symSize: 0x20 }
  - { offsetInCU: 0xD56C, offset: 0x135C5, size: 0x8, addend: 0x0, symName: __ZNSt3__18_IterOpsINS_17_ClassicAlgPolicyEE25__validate_iter_referenceB8ue170006IRNS_16reverse_iteratorIP6GPointEEEEvv, symObjAddr: 0x274C, symBinAddr: 0x1000044F4, symSize: 0x4 }
  - { offsetInCU: 0xD58A, offset: 0x135E3, size: 0x8, addend: 0x0, symName: __ZNSt3__118__unwrap_iter_implINS_16reverse_iteratorIP6GPointEELb0EE8__unwrapB8ue170006ES4_, symObjAddr: 0x2750, symBinAddr: 0x1000044F8, symSize: 0x24 }
  - { offsetInCU: 0xD5B3, offset: 0x1360C, size: 0x8, addend: 0x0, symName: __ZNSt3__14pairINS_16reverse_iteratorIP6GPointEES4_EC1B8ue170006IS4_S4_LPv0EEEOT_OT0_, symObjAddr: 0x2774, symBinAddr: 0x10000451C, symSize: 0x3C }
  - { offsetInCU: 0xD610, offset: 0x13669, size: 0x8, addend: 0x0, symName: __ZNSt3__14pairINS_16reverse_iteratorIP6GPointEES4_EC2B8ue170006IS4_S4_LPv0EEEOT_OT0_, symObjAddr: 0x27B0, symBinAddr: 0x100004558, symSize: 0x34 }
  - { offsetInCU: 0xD66D, offset: 0x136C6, size: 0x8, addend: 0x0, symName: __ZNSt3__118__unwrap_iter_implINS_16reverse_iteratorIP6GPointEELb0EE8__rewrapB8ue170006ES4_S4_, symObjAddr: 0x27E4, symBinAddr: 0x10000458C, symSize: 0x2C }
  - { offsetInCU: 0xD69B, offset: 0x136F4, size: 0x8, addend: 0x0, symName: __ZNSt3__116reverse_iteratorIP6GPointEC2B8ue170006ES2_, symObjAddr: 0x2810, symBinAddr: 0x1000045B8, symSize: 0x28 }
  - { offsetInCU: 0xD6D2, offset: 0x1372B, size: 0x8, addend: 0x0, symName: __ZNSt3__114__split_bufferI6GPointRNS_9allocatorIS1_EEED2Ev, symObjAddr: 0x2838, symBinAddr: 0x1000045E0, symSize: 0x8C }
  - { offsetInCU: 0xD6FD, offset: 0x13756, size: 0x8, addend: 0x0, symName: __ZNSt3__114__split_bufferI6GPointRNS_9allocatorIS1_EEE5clearB8ue170006Ev, symObjAddr: 0x28C4, symBinAddr: 0x10000466C, symSize: 0x28 }
  - { offsetInCU: 0xD721, offset: 0x1377A, size: 0x8, addend: 0x0, symName: __ZNSt3__116allocator_traitsINS_9allocatorI6GPointEEE10deallocateB8ue170006ERS3_PS2_m, symObjAddr: 0x28EC, symBinAddr: 0x100004694, symSize: 0x34 }
  - { offsetInCU: 0xD763, offset: 0x137BC, size: 0x8, addend: 0x0, symName: __ZNKSt3__114__split_bufferI6GPointRNS_9allocatorIS1_EEE8capacityB8ue170006Ev, symObjAddr: 0x2920, symBinAddr: 0x1000046C8, symSize: 0x40 }
  - { offsetInCU: 0xD787, offset: 0x137E0, size: 0x8, addend: 0x0, symName: __ZNSt3__114__split_bufferI6GPointRNS_9allocatorIS1_EEE17__destruct_at_endB8ue170006EPS1_, symObjAddr: 0x2960, symBinAddr: 0x100004708, symSize: 0x2C }
  - { offsetInCU: 0xD7B8, offset: 0x13811, size: 0x8, addend: 0x0, symName: __ZNSt3__114__split_bufferI6GPointRNS_9allocatorIS1_EEE17__destruct_at_endB8ue170006EPS1_NS_17integral_constantIbLb0EEE, symObjAddr: 0x298C, symBinAddr: 0x100004734, symSize: 0x80 }
  - { offsetInCU: 0xD7F9, offset: 0x13852, size: 0x8, addend: 0x0, symName: __ZNSt3__116allocator_traitsINS_9allocatorI6GPointEEE7destroyB8ue170006IS2_vEEvRS3_PT_, symObjAddr: 0x2A0C, symBinAddr: 0x1000047B4, symSize: 0x2C }
  - { offsetInCU: 0xD836, offset: 0x1388F, size: 0x8, addend: 0x0, symName: __ZNSt3__19allocatorI6GPointE7destroyB8ue170006EPS1_, symObjAddr: 0x2A38, symBinAddr: 0x1000047E0, symSize: 0x14 }
  - { offsetInCU: 0xD868, offset: 0x138C1, size: 0x8, addend: 0x0, symName: __ZNSt3__19allocatorI6GPointE10deallocateB8ue170006EPS1_m, symObjAddr: 0x2A4C, symBinAddr: 0x1000047F4, symSize: 0x40 }
  - { offsetInCU: 0xD8A8, offset: 0x13901, size: 0x8, addend: 0x0, symName: __ZNKSt3__114__split_bufferI6GPointRNS_9allocatorIS1_EEE9__end_capB8ue170006Ev, symObjAddr: 0x2B94, symBinAddr: 0x10000493C, symSize: 0x28 }
  - { offsetInCU: 0xD8CC, offset: 0x13925, size: 0x8, addend: 0x0, symName: __ZNKSt3__117__compressed_pairIP6GPointRNS_9allocatorIS1_EEE5firstB8ue170006Ev, symObjAddr: 0x2BBC, symBinAddr: 0x100004964, symSize: 0x24 }
  - { offsetInCU: 0xD8F0, offset: 0x13949, size: 0x8, addend: 0x0, symName: __ZNSt3__16vectorIN5GPath4VerbENS_9allocatorIS2_EEE9__end_capB8ue170006Ev, symObjAddr: 0x2BE0, symBinAddr: 0x100004988, symSize: 0x28 }
  - { offsetInCU: 0xD914, offset: 0x1396D, size: 0x8, addend: 0x0, symName: __ZNSt3__16vectorIN5GPath4VerbENS_9allocatorIS2_EEE22__construct_one_at_endB8ue170006IJS2_EEEvDpOT_, symObjAddr: 0x2C08, symBinAddr: 0x1000049B0, symSize: 0x90 }
  - { offsetInCU: 0xD960, offset: 0x139B9, size: 0x8, addend: 0x0, symName: __ZNSt3__16vectorIN5GPath4VerbENS_9allocatorIS2_EEE21__push_back_slow_pathIS2_EEvOT_, symObjAddr: 0x2C98, symBinAddr: 0x100004A40, symSize: 0xD8 }
  - { offsetInCU: 0xD9BE, offset: 0x13A17, size: 0x8, addend: 0x0, symName: __ZNSt3__117__compressed_pairIPN5GPath4VerbENS_9allocatorIS2_EEE5firstB8ue170006Ev, symObjAddr: 0x2D70, symBinAddr: 0x100004B18, symSize: 0x24 }
  - { offsetInCU: 0xD9E2, offset: 0x13A3B, size: 0x8, addend: 0x0, symName: __ZNSt3__122__compressed_pair_elemIPN5GPath4VerbELi0ELb0EE5__getB8ue170006Ev, symObjAddr: 0x2D94, symBinAddr: 0x100004B3C, symSize: 0x14 }
  - { offsetInCU: 0xDA1F, offset: 0x13A78, size: 0x8, addend: 0x0, symName: __ZNSt3__16vectorIN5GPath4VerbENS_9allocatorIS2_EEE21_ConstructTransactionC1B8ue170006ERS5_m, symObjAddr: 0x2DA8, symBinAddr: 0x100004B50, symSize: 0x3C }
  - { offsetInCU: 0xDA66, offset: 0x13ABF, size: 0x8, addend: 0x0, symName: __ZNSt3__116allocator_traitsINS_9allocatorIN5GPath4VerbEEEE9constructB8ue170006IS3_JS3_EvEEvRS4_PT_DpOT0_, symObjAddr: 0x2DE4, symBinAddr: 0x100004B8C, symSize: 0x34 }
  - { offsetInCU: 0xDABD, offset: 0x13B16, size: 0x8, addend: 0x0, symName: __ZNSt3__16vectorIN5GPath4VerbENS_9allocatorIS2_EEE7__allocB8ue170006Ev, symObjAddr: 0x2E18, symBinAddr: 0x100004BC0, symSize: 0x28 }
  - { offsetInCU: 0xDAE1, offset: 0x13B3A, size: 0x8, addend: 0x0, symName: __ZNSt3__16vectorIN5GPath4VerbENS_9allocatorIS2_EEE21_ConstructTransactionD1B8ue170006Ev, symObjAddr: 0x2E54, symBinAddr: 0x100004BFC, symSize: 0x2C }
  - { offsetInCU: 0xDB0A, offset: 0x13B63, size: 0x8, addend: 0x0, symName: __ZNSt3__16vectorIN5GPath4VerbENS_9allocatorIS2_EEE21_ConstructTransactionC2B8ue170006ERS5_m, symObjAddr: 0x2E80, symBinAddr: 0x100004C28, symSize: 0x44 }
  - { offsetInCU: 0xDB51, offset: 0x13BAA, size: 0x8, addend: 0x0, symName: __ZNSt3__19allocatorIN5GPath4VerbEE9constructB8ue170006IS2_JS2_EEEvPT_DpOT0_, symObjAddr: 0x2EC4, symBinAddr: 0x100004C6C, symSize: 0x28 }
  - { offsetInCU: 0xDBA5, offset: 0x13BFE, size: 0x8, addend: 0x0, symName: __ZNSt3__117__compressed_pairIPN5GPath4VerbENS_9allocatorIS2_EEE6secondB8ue170006Ev, symObjAddr: 0x2EEC, symBinAddr: 0x100004C94, symSize: 0x24 }
  - { offsetInCU: 0xDBC9, offset: 0x13C22, size: 0x8, addend: 0x0, symName: __ZNSt3__122__compressed_pair_elemINS_9allocatorIN5GPath4VerbEEELi1ELb1EE5__getB8ue170006Ev, symObjAddr: 0x2F10, symBinAddr: 0x100004CB8, symSize: 0x14 }
  - { offsetInCU: 0xDBED, offset: 0x13C46, size: 0x8, addend: 0x0, symName: __ZNSt3__16vectorIN5GPath4VerbENS_9allocatorIS2_EEE21_ConstructTransactionD2B8ue170006Ev, symObjAddr: 0x2F24, symBinAddr: 0x100004CCC, symSize: 0x20 }
  - { offsetInCU: 0xDC15, offset: 0x13C6E, size: 0x8, addend: 0x0, symName: __ZNKSt3__16vectorIN5GPath4VerbENS_9allocatorIS2_EEE11__recommendB8ue170006Em, symObjAddr: 0x2F44, symBinAddr: 0x100004CEC, symSize: 0xB4 }
  - { offsetInCU: 0xDC6A, offset: 0x13CC3, size: 0x8, addend: 0x0, symName: __ZNSt3__114__split_bufferIN5GPath4VerbERNS_9allocatorIS2_EEEC1EmmS5_, symObjAddr: 0x2FF8, symBinAddr: 0x100004DA0, symSize: 0x44 }
  - { offsetInCU: 0xDCBF, offset: 0x13D18, size: 0x8, addend: 0x0, symName: __ZNSt3__114__split_bufferIN5GPath4VerbERNS_9allocatorIS2_EEED1Ev, symObjAddr: 0x314C, symBinAddr: 0x100004EF4, symSize: 0x2C }
  - { offsetInCU: 0xDCE9, offset: 0x13D42, size: 0x8, addend: 0x0, symName: __ZNKSt3__16vectorIN5GPath4VerbENS_9allocatorIS2_EEE8max_sizeEv, symObjAddr: 0x3178, symBinAddr: 0x100004F20, symSize: 0x60 }
  - { offsetInCU: 0xDD11, offset: 0x13D6A, size: 0x8, addend: 0x0, symName: __ZNKSt3__16vectorIN5GPath4VerbENS_9allocatorIS2_EEE20__throw_length_errorB8ue170006Ev, symObjAddr: 0x31D8, symBinAddr: 0x100004F80, symSize: 0x1C }
  - { offsetInCU: 0xDD35, offset: 0x13D8E, size: 0x8, addend: 0x0, symName: __ZNKSt3__16vectorIN5GPath4VerbENS_9allocatorIS2_EEE8capacityB8ue170006Ev, symObjAddr: 0x31F4, symBinAddr: 0x100004F9C, symSize: 0x40 }
  - { offsetInCU: 0xDD63, offset: 0x13DBC, size: 0x8, addend: 0x0, symName: __ZNSt3__116allocator_traitsINS_9allocatorIN5GPath4VerbEEEE8max_sizeB8ue170006IS4_vEEmRKS4_, symObjAddr: 0x3234, symBinAddr: 0x100004FDC, symSize: 0x24 }
  - { offsetInCU: 0xDD91, offset: 0x13DEA, size: 0x8, addend: 0x0, symName: __ZNKSt3__16vectorIN5GPath4VerbENS_9allocatorIS2_EEE7__allocB8ue170006Ev, symObjAddr: 0x3258, symBinAddr: 0x100005000, symSize: 0x28 }
  - { offsetInCU: 0xDDB5, offset: 0x13E0E, size: 0x8, addend: 0x0, symName: __ZNKSt3__19allocatorIN5GPath4VerbEE8max_sizeB8ue170006Ev, symObjAddr: 0x3280, symBinAddr: 0x100005028, symSize: 0x14 }
  - { offsetInCU: 0xDDD9, offset: 0x13E32, size: 0x8, addend: 0x0, symName: __ZNKSt3__117__compressed_pairIPN5GPath4VerbENS_9allocatorIS2_EEE6secondB8ue170006Ev, symObjAddr: 0x3294, symBinAddr: 0x10000503C, symSize: 0x24 }
  - { offsetInCU: 0xDDFD, offset: 0x13E56, size: 0x8, addend: 0x0, symName: __ZNKSt3__122__compressed_pair_elemINS_9allocatorIN5GPath4VerbEEELi1ELb1EE5__getB8ue170006Ev, symObjAddr: 0x32B8, symBinAddr: 0x100005060, symSize: 0x14 }
  - { offsetInCU: 0xDE21, offset: 0x13E7A, size: 0x8, addend: 0x0, symName: __ZNKSt3__16vectorIN5GPath4VerbENS_9allocatorIS2_EEE9__end_capB8ue170006Ev, symObjAddr: 0x32CC, symBinAddr: 0x100005074, symSize: 0x28 }
  - { offsetInCU: 0xDE45, offset: 0x13E9E, size: 0x8, addend: 0x0, symName: __ZNKSt3__117__compressed_pairIPN5GPath4VerbENS_9allocatorIS2_EEE5firstB8ue170006Ev, symObjAddr: 0x32F4, symBinAddr: 0x10000509C, symSize: 0x24 }
  - { offsetInCU: 0xDE69, offset: 0x13EC2, size: 0x8, addend: 0x0, symName: __ZNKSt3__122__compressed_pair_elemIPN5GPath4VerbELi0ELb0EE5__getB8ue170006Ev, symObjAddr: 0x3318, symBinAddr: 0x1000050C0, symSize: 0x14 }
  - { offsetInCU: 0xDE8D, offset: 0x13EE6, size: 0x8, addend: 0x0, symName: __ZNSt3__114__split_bufferIN5GPath4VerbERNS_9allocatorIS2_EEEC2EmmS5_, symObjAddr: 0x332C, symBinAddr: 0x1000050D4, symSize: 0xD4 }
  - { offsetInCU: 0xDEFF, offset: 0x13F58, size: 0x8, addend: 0x0, symName: __ZNSt3__117__compressed_pairIPN5GPath4VerbERNS_9allocatorIS2_EEEC1B8ue170006IDnS6_EEOT_OT0_, symObjAddr: 0x3400, symBinAddr: 0x1000051A8, symSize: 0x3C }
  - { offsetInCU: 0xDF56, offset: 0x13FAF, size: 0x8, addend: 0x0, symName: __ZNSt3__114__split_bufferIN5GPath4VerbERNS_9allocatorIS2_EEE7__allocB8ue170006Ev, symObjAddr: 0x347C, symBinAddr: 0x100005224, symSize: 0x28 }
  - { offsetInCU: 0xDF7A, offset: 0x13FD3, size: 0x8, addend: 0x0, symName: __ZNSt3__114__split_bufferIN5GPath4VerbERNS_9allocatorIS2_EEE9__end_capB8ue170006Ev, symObjAddr: 0x34A4, symBinAddr: 0x10000524C, symSize: 0x28 }
  - { offsetInCU: 0xDF9E, offset: 0x13FF7, size: 0x8, addend: 0x0, symName: __ZNSt3__117__compressed_pairIPN5GPath4VerbERNS_9allocatorIS2_EEEC2B8ue170006IDnS6_EEOT_OT0_, symObjAddr: 0x34CC, symBinAddr: 0x100005274, symSize: 0x48 }
  - { offsetInCU: 0xDFF5, offset: 0x1404E, size: 0x8, addend: 0x0, symName: __ZNSt3__122__compressed_pair_elemIPN5GPath4VerbELi0ELb0EEC2B8ue170006IDnvEEOT_, symObjAddr: 0x3514, symBinAddr: 0x1000052BC, symSize: 0x1C }
  - { offsetInCU: 0xE036, offset: 0x1408F, size: 0x8, addend: 0x0, symName: __ZNSt3__122__compressed_pair_elemIRNS_9allocatorIN5GPath4VerbEEELi1ELb0EEC2B8ue170006IS5_vEEOT_, symObjAddr: 0x3530, symBinAddr: 0x1000052D8, symSize: 0x20 }
  - { offsetInCU: 0xE077, offset: 0x140D0, size: 0x8, addend: 0x0, symName: __ZNSt3__19allocatorIN5GPath4VerbEE8allocateB8ue170006Em, symObjAddr: 0x3550, symBinAddr: 0x1000052F8, symSize: 0x58 }
  - { offsetInCU: 0xE0A9, offset: 0x14102, size: 0x8, addend: 0x0, symName: __ZNSt3__117__compressed_pairIPN5GPath4VerbERNS_9allocatorIS2_EEE6secondB8ue170006Ev, symObjAddr: 0x35A8, symBinAddr: 0x100005350, symSize: 0x28 }
  - { offsetInCU: 0xE0CD, offset: 0x14126, size: 0x8, addend: 0x0, symName: __ZNSt3__122__compressed_pair_elemIRNS_9allocatorIN5GPath4VerbEEELi1ELb0EE5__getB8ue170006Ev, symObjAddr: 0x35D0, symBinAddr: 0x100005378, symSize: 0x18 }
  - { offsetInCU: 0xE0F1, offset: 0x1414A, size: 0x8, addend: 0x0, symName: __ZNSt3__117__compressed_pairIPN5GPath4VerbERNS_9allocatorIS2_EEE5firstB8ue170006Ev, symObjAddr: 0x35E8, symBinAddr: 0x100005390, symSize: 0x24 }
  - { offsetInCU: 0xE115, offset: 0x1416E, size: 0x8, addend: 0x0, symName: __ZNKSt3__16vectorIN5GPath4VerbENS_9allocatorIS2_EEE17__annotate_deleteB8ue170006Ev, symObjAddr: 0x360C, symBinAddr: 0x1000053B4, symSize: 0xB8 }
  - { offsetInCU: 0xE139, offset: 0x14192, size: 0x8, addend: 0x0, symName: __ZNSt3__116reverse_iteratorIPN5GPath4VerbEEC1B8ue170006ES3_, symObjAddr: 0x373C, symBinAddr: 0x1000054E4, symSize: 0x34 }
  - { offsetInCU: 0xE170, offset: 0x141C9, size: 0x8, addend: 0x0, symName: __ZNKSt3__116reverse_iteratorIPN5GPath4VerbEE4baseB8ue170006Ev, symObjAddr: 0x3770, symBinAddr: 0x100005518, symSize: 0x18 }
  - { offsetInCU: 0xE194, offset: 0x141ED, size: 0x8, addend: 0x0, symName: __ZNKSt3__16vectorIN5GPath4VerbENS_9allocatorIS2_EEE14__annotate_newB8ue170006Em, symObjAddr: 0x37C4, symBinAddr: 0x10000556C, symSize: 0xAC }
  - { offsetInCU: 0xE1C7, offset: 0x14220, size: 0x8, addend: 0x0, symName: __ZNKSt3__16vectorIN5GPath4VerbENS_9allocatorIS2_EEE31__annotate_contiguous_containerB8ue170006EPKvS7_S7_S7_, symObjAddr: 0x3870, symBinAddr: 0x100005618, symSize: 0x20 }
  - { offsetInCU: 0xE231, offset: 0x1428A, size: 0x8, addend: 0x0, symName: __ZNKSt3__111__move_loopINS_17_ClassicAlgPolicyEEclB8ue170006INS_16reverse_iteratorIPN5GPath4VerbEEES8_S8_EENS_4pairIT_T1_EESA_T0_SB_, symObjAddr: 0x3B80, symBinAddr: 0x100005928, symSize: 0xA0 }
  - { offsetInCU: 0xE29A, offset: 0x142F3, size: 0x8, addend: 0x0, symName: __ZNSt3__18_IterOpsINS_17_ClassicAlgPolicyEE11__iter_moveB8ue170006IRNS_16reverse_iteratorIPN5GPath4VerbEEEEENS_9enable_ifIXsr12is_referenceIDTdeclsr3stdE7declvalIRT_EEEEE5valueEDTclsr3stdE4movedeclsr3stdE7declvalISC_EEEEE4typeEOSB_, symObjAddr: 0x3DB4, symBinAddr: 0x100005B5C, symSize: 0x28 }
  - { offsetInCU: 0xE2C6, offset: 0x1431F, size: 0x8, addend: 0x0, symName: __ZNKSt3__116reverse_iteratorIPN5GPath4VerbEEdeB8ue170006Ev, symObjAddr: 0x3DDC, symBinAddr: 0x100005B84, symSize: 0x28 }
  - { offsetInCU: 0xE2F8, offset: 0x14351, size: 0x8, addend: 0x0, symName: __ZNSt3__116reverse_iteratorIPN5GPath4VerbEEppB8ue170006Ev, symObjAddr: 0x3E04, symBinAddr: 0x100005BAC, symSize: 0x20 }
  - { offsetInCU: 0xE31C, offset: 0x14375, size: 0x8, addend: 0x0, symName: __ZNSt3__18_IterOpsINS_17_ClassicAlgPolicyEE25__validate_iter_referenceB8ue170006IRNS_16reverse_iteratorIPN5GPath4VerbEEEEEvv, symObjAddr: 0x3E24, symBinAddr: 0x100005BCC, symSize: 0x4 }
  - { offsetInCU: 0xE33A, offset: 0x14393, size: 0x8, addend: 0x0, symName: __ZNSt3__118__unwrap_iter_implINS_16reverse_iteratorIPN5GPath4VerbEEELb0EE8__unwrapB8ue170006ES5_, symObjAddr: 0x3E28, symBinAddr: 0x100005BD0, symSize: 0x24 }
  - { offsetInCU: 0xE363, offset: 0x143BC, size: 0x8, addend: 0x0, symName: __ZNSt3__14pairINS_16reverse_iteratorIPN5GPath4VerbEEES5_EC1B8ue170006IS5_S5_LPv0EEEOT_OT0_, symObjAddr: 0x3E4C, symBinAddr: 0x100005BF4, symSize: 0x3C }
  - { offsetInCU: 0xE3C0, offset: 0x14419, size: 0x8, addend: 0x0, symName: __ZNSt3__14pairINS_16reverse_iteratorIPN5GPath4VerbEEES5_EC2B8ue170006IS5_S5_LPv0EEEOT_OT0_, symObjAddr: 0x3E88, symBinAddr: 0x100005C30, symSize: 0x34 }
  - { offsetInCU: 0xE41D, offset: 0x14476, size: 0x8, addend: 0x0, symName: __ZNSt3__118__unwrap_iter_implINS_16reverse_iteratorIPN5GPath4VerbEEELb0EE8__rewrapB8ue170006ES5_S5_, symObjAddr: 0x3EBC, symBinAddr: 0x100005C64, symSize: 0x2C }
  - { offsetInCU: 0xE44B, offset: 0x144A4, size: 0x8, addend: 0x0, symName: __ZNSt3__116reverse_iteratorIPN5GPath4VerbEEC2B8ue170006ES3_, symObjAddr: 0x3EE8, symBinAddr: 0x100005C90, symSize: 0x28 }
  - { offsetInCU: 0xE482, offset: 0x144DB, size: 0x8, addend: 0x0, symName: __ZNSt3__114__split_bufferIN5GPath4VerbERNS_9allocatorIS2_EEED2Ev, symObjAddr: 0x3F10, symBinAddr: 0x100005CB8, symSize: 0x8C }
  - { offsetInCU: 0xE4AD, offset: 0x14506, size: 0x8, addend: 0x0, symName: __ZNSt3__114__split_bufferIN5GPath4VerbERNS_9allocatorIS2_EEE5clearB8ue170006Ev, symObjAddr: 0x3F9C, symBinAddr: 0x100005D44, symSize: 0x28 }
  - { offsetInCU: 0xE4D1, offset: 0x1452A, size: 0x8, addend: 0x0, symName: __ZNSt3__116allocator_traitsINS_9allocatorIN5GPath4VerbEEEE10deallocateB8ue170006ERS4_PS3_m, symObjAddr: 0x3FC4, symBinAddr: 0x100005D6C, symSize: 0x34 }
  - { offsetInCU: 0xE513, offset: 0x1456C, size: 0x8, addend: 0x0, symName: __ZNKSt3__114__split_bufferIN5GPath4VerbERNS_9allocatorIS2_EEE8capacityB8ue170006Ev, symObjAddr: 0x3FF8, symBinAddr: 0x100005DA0, symSize: 0x40 }
  - { offsetInCU: 0xE537, offset: 0x14590, size: 0x8, addend: 0x0, symName: __ZNSt3__114__split_bufferIN5GPath4VerbERNS_9allocatorIS2_EEE17__destruct_at_endB8ue170006EPS2_, symObjAddr: 0x4038, symBinAddr: 0x100005DE0, symSize: 0x2C }
  - { offsetInCU: 0xE568, offset: 0x145C1, size: 0x8, addend: 0x0, symName: __ZNSt3__114__split_bufferIN5GPath4VerbERNS_9allocatorIS2_EEE17__destruct_at_endB8ue170006EPS2_NS_17integral_constantIbLb0EEE, symObjAddr: 0x4064, symBinAddr: 0x100005E0C, symSize: 0x80 }
  - { offsetInCU: 0xE5A9, offset: 0x14602, size: 0x8, addend: 0x0, symName: __ZNSt3__116allocator_traitsINS_9allocatorIN5GPath4VerbEEEE7destroyB8ue170006IS3_vEEvRS4_PT_, symObjAddr: 0x40E4, symBinAddr: 0x100005E8C, symSize: 0x2C }
  - { offsetInCU: 0xE5E6, offset: 0x1463F, size: 0x8, addend: 0x0, symName: __ZNSt3__19allocatorIN5GPath4VerbEE7destroyB8ue170006EPS2_, symObjAddr: 0x4110, symBinAddr: 0x100005EB8, symSize: 0x14 }
  - { offsetInCU: 0xE618, offset: 0x14671, size: 0x8, addend: 0x0, symName: __ZNSt3__19allocatorIN5GPath4VerbEE10deallocateB8ue170006EPS2_m, symObjAddr: 0x4124, symBinAddr: 0x100005ECC, symSize: 0x40 }
  - { offsetInCU: 0xE658, offset: 0x146B1, size: 0x8, addend: 0x0, symName: __ZNKSt3__114__split_bufferIN5GPath4VerbERNS_9allocatorIS2_EEE9__end_capB8ue170006Ev, symObjAddr: 0x4164, symBinAddr: 0x100005F0C, symSize: 0x28 }
  - { offsetInCU: 0xE67C, offset: 0x146D5, size: 0x8, addend: 0x0, symName: __ZNKSt3__117__compressed_pairIPN5GPath4VerbERNS_9allocatorIS2_EEE5firstB8ue170006Ev, symObjAddr: 0x418C, symBinAddr: 0x100005F34, symSize: 0x24 }
  - { offsetInCU: 0xE6A0, offset: 0x146F9, size: 0x8, addend: 0x0, symName: __ZNSt3__16vectorI6GPointNS_9allocatorIS1_EEEC2B8ue170006Ev, symObjAddr: 0x41B0, symBinAddr: 0x100005F58, symSize: 0x4C }
  - { offsetInCU: 0xE6CF, offset: 0x14728, size: 0x8, addend: 0x0, symName: __ZNSt3__117__compressed_pairIP6GPointNS_9allocatorIS1_EEEC1B8ue170006IDnNS_18__default_init_tagEEEOT_OT0_, symObjAddr: 0x41FC, symBinAddr: 0x100005FA4, symSize: 0x3C }
  - { offsetInCU: 0xE726, offset: 0x1477F, size: 0x8, addend: 0x0, symName: __ZNSt3__117__compressed_pairIP6GPointNS_9allocatorIS1_EEEC2B8ue170006IDnNS_18__default_init_tagEEEOT_OT0_, symObjAddr: 0x4238, symBinAddr: 0x100005FE0, symSize: 0x40 }
  - { offsetInCU: 0xE77D, offset: 0x147D6, size: 0x8, addend: 0x0, symName: __ZNSt3__122__compressed_pair_elemINS_9allocatorI6GPointEELi1ELb1EEC2B8ue170006ENS_18__default_init_tagE, symObjAddr: 0x4278, symBinAddr: 0x100006020, symSize: 0x2C }
  - { offsetInCU: 0xE7B1, offset: 0x1480A, size: 0x8, addend: 0x0, symName: __ZNSt3__19allocatorI6GPointEC2B8ue170006Ev, symObjAddr: 0x42A4, symBinAddr: 0x10000604C, symSize: 0x2C }
  - { offsetInCU: 0xE7DA, offset: 0x14833, size: 0x8, addend: 0x0, symName: __ZNSt3__116__non_trivial_ifILb1ENS_9allocatorI6GPointEEEC2B8ue170006Ev, symObjAddr: 0x42D0, symBinAddr: 0x100006078, symSize: 0x14 }
  - { offsetInCU: 0xE803, offset: 0x1485C, size: 0x8, addend: 0x0, symName: __ZNSt3__16vectorIN5GPath4VerbENS_9allocatorIS2_EEEC2B8ue170006Ev, symObjAddr: 0x42E4, symBinAddr: 0x10000608C, symSize: 0x4C }
  - { offsetInCU: 0xE82C, offset: 0x14885, size: 0x8, addend: 0x0, symName: __ZNSt3__117__compressed_pairIPN5GPath4VerbENS_9allocatorIS2_EEEC1B8ue170006IDnNS_18__default_init_tagEEEOT_OT0_, symObjAddr: 0x4330, symBinAddr: 0x1000060D8, symSize: 0x3C }
  - { offsetInCU: 0xE883, offset: 0x148DC, size: 0x8, addend: 0x0, symName: __ZNSt3__117__compressed_pairIPN5GPath4VerbENS_9allocatorIS2_EEEC2B8ue170006IDnNS_18__default_init_tagEEEOT_OT0_, symObjAddr: 0x436C, symBinAddr: 0x100006114, symSize: 0x40 }
  - { offsetInCU: 0xE8DA, offset: 0x14933, size: 0x8, addend: 0x0, symName: __ZNSt3__122__compressed_pair_elemINS_9allocatorIN5GPath4VerbEEELi1ELb1EEC2B8ue170006ENS_18__default_init_tagE, symObjAddr: 0x43AC, symBinAddr: 0x100006154, symSize: 0x2C }
  - { offsetInCU: 0xE90E, offset: 0x14967, size: 0x8, addend: 0x0, symName: __ZNSt3__19allocatorIN5GPath4VerbEEC2B8ue170006Ev, symObjAddr: 0x43D8, symBinAddr: 0x100006180, symSize: 0x2C }
  - { offsetInCU: 0xE937, offset: 0x14990, size: 0x8, addend: 0x0, symName: __ZNSt3__116__non_trivial_ifILb1ENS_9allocatorIN5GPath4VerbEEEEC2B8ue170006Ev, symObjAddr: 0x4404, symBinAddr: 0x1000061AC, symSize: 0x14 }
  - { offsetInCU: 0xE960, offset: 0x149B9, size: 0x8, addend: 0x0, symName: __ZNSt3__16vectorI6GPointNS_9allocatorIS1_EEED2B8ue170006Ev, symObjAddr: 0x4418, symBinAddr: 0x1000061C0, symSize: 0x44 }
  - { offsetInCU: 0xE989, offset: 0x149E2, size: 0x8, addend: 0x0, symName: __ZNSt3__16vectorI6GPointNS_9allocatorIS1_EEE16__destroy_vectorC1B8ue170006ERS4_, symObjAddr: 0x445C, symBinAddr: 0x100006204, symSize: 0x34 }
  - { offsetInCU: 0xE9C1, offset: 0x14A1A, size: 0x8, addend: 0x0, symName: __ZNSt3__16vectorI6GPointNS_9allocatorIS1_EEE16__destroy_vectorclB8ue170006Ev, symObjAddr: 0x4490, symBinAddr: 0x100006238, symSize: 0x90 }
  - { offsetInCU: 0xE9E5, offset: 0x14A3E, size: 0x8, addend: 0x0, symName: __ZNSt3__16vectorI6GPointNS_9allocatorIS1_EEE16__destroy_vectorC2B8ue170006ERS4_, symObjAddr: 0x4520, symBinAddr: 0x1000062C8, symSize: 0x20 }
  - { offsetInCU: 0xEA1D, offset: 0x14A76, size: 0x8, addend: 0x0, symName: __ZNSt3__16vectorI6GPointNS_9allocatorIS1_EEE7__clearB8ue170006Ev, symObjAddr: 0x4540, symBinAddr: 0x1000062E8, symSize: 0x28 }
  - { offsetInCU: 0xEA41, offset: 0x14A9A, size: 0x8, addend: 0x0, symName: __ZNSt3__16vectorI6GPointNS_9allocatorIS1_EEE22__base_destruct_at_endB8ue170006EPS1_, symObjAddr: 0x4568, symBinAddr: 0x100006310, symSize: 0x8C }
  - { offsetInCU: 0xEA83, offset: 0x14ADC, size: 0x8, addend: 0x0, symName: __ZNSt3__16vectorIN5GPath4VerbENS_9allocatorIS2_EEED2B8ue170006Ev, symObjAddr: 0x45F4, symBinAddr: 0x10000639C, symSize: 0x44 }
  - { offsetInCU: 0xEAAC, offset: 0x14B05, size: 0x8, addend: 0x0, symName: __ZNSt3__16vectorIN5GPath4VerbENS_9allocatorIS2_EEE16__destroy_vectorC1B8ue170006ERS5_, symObjAddr: 0x4638, symBinAddr: 0x1000063E0, symSize: 0x34 }
  - { offsetInCU: 0xEAE4, offset: 0x14B3D, size: 0x8, addend: 0x0, symName: __ZNSt3__16vectorIN5GPath4VerbENS_9allocatorIS2_EEE16__destroy_vectorclB8ue170006Ev, symObjAddr: 0x466C, symBinAddr: 0x100006414, symSize: 0x90 }
  - { offsetInCU: 0xEB08, offset: 0x14B61, size: 0x8, addend: 0x0, symName: __ZNSt3__16vectorIN5GPath4VerbENS_9allocatorIS2_EEE16__destroy_vectorC2B8ue170006ERS5_, symObjAddr: 0x46FC, symBinAddr: 0x1000064A4, symSize: 0x20 }
  - { offsetInCU: 0xEB40, offset: 0x14B99, size: 0x8, addend: 0x0, symName: __ZNSt3__16vectorIN5GPath4VerbENS_9allocatorIS2_EEE7__clearB8ue170006Ev, symObjAddr: 0x471C, symBinAddr: 0x1000064C4, symSize: 0x28 }
  - { offsetInCU: 0xEB64, offset: 0x14BBD, size: 0x8, addend: 0x0, symName: __ZNSt3__16vectorIN5GPath4VerbENS_9allocatorIS2_EEE22__base_destruct_at_endB8ue170006EPS2_, symObjAddr: 0x4744, symBinAddr: 0x1000064EC, symSize: 0x8C }
  - { offsetInCU: 0xEBA6, offset: 0x14BFF, size: 0x8, addend: 0x0, symName: __ZNSt3__16vectorI6GPointNS_9allocatorIS1_EEE19__copy_assign_allocB8ue170006ERKS4_, symObjAddr: 0x47D0, symBinAddr: 0x100006578, symSize: 0x2C }
  - { offsetInCU: 0xEBD8, offset: 0x14C31, size: 0x8, addend: 0x0, symName: __ZNSt3__16vectorI6GPointNS_9allocatorIS1_EEE6assignIPS1_Li0EEEvT_S7_, symObjAddr: 0x47FC, symBinAddr: 0x1000065A4, symSize: 0x5C }
  - { offsetInCU: 0xEC2D, offset: 0x14C86, size: 0x8, addend: 0x0, symName: __ZNSt3__16vectorI6GPointNS_9allocatorIS1_EEE19__copy_assign_allocB8ue170006ERKS4_NS_17integral_constantIbLb0EEE, symObjAddr: 0x4858, symBinAddr: 0x100006600, symSize: 0x14 }
  - { offsetInCU: 0xEC66, offset: 0x14CBF, size: 0x8, addend: 0x0, symName: __ZNSt3__16vectorI6GPointNS_9allocatorIS1_EEE18__assign_with_sizeB8ue170006IPS1_S6_EEvT_T0_l, symObjAddr: 0x486C, symBinAddr: 0x100006614, symSize: 0x164 }
  - { offsetInCU: 0xED15, offset: 0x14D6E, size: 0x8, addend: 0x0, symName: __ZNSt3__16vectorI6GPointNS_9allocatorIS1_EEE18__construct_at_endIPS1_S6_EEvT_T0_m, symObjAddr: 0x4A70, symBinAddr: 0x100006818, symSize: 0x8C }
  - { offsetInCU: 0xED8B, offset: 0x14DE4, size: 0x8, addend: 0x0, symName: __ZNSt3__16vectorI6GPointNS_9allocatorIS1_EEE17__destruct_at_endB8ue170006EPS1_, symObjAddr: 0x4B40, symBinAddr: 0x1000068E8, symSize: 0x4C }
  - { offsetInCU: 0xEDCC, offset: 0x14E25, size: 0x8, addend: 0x0, symName: __ZNSt3__16vectorI6GPointNS_9allocatorIS1_EEE13__vdeallocateEv, symObjAddr: 0x4B8C, symBinAddr: 0x100006934, symSize: 0x94 }
  - { offsetInCU: 0xEDF4, offset: 0x14E4D, size: 0x8, addend: 0x0, symName: __ZNSt3__16vectorI6GPointNS_9allocatorIS1_EEE11__vallocateB8ue170006Em, symObjAddr: 0x4C20, symBinAddr: 0x1000069C8, symSize: 0xAC }
  - { offsetInCU: 0xEE56, offset: 0x14EAF, size: 0x8, addend: 0x0, symName: __ZNSt3__14pairIP6GPointS2_EC1B8ue170006IS2_S2_LPv0EEEOT_OT0_, symObjAddr: 0x4EF0, symBinAddr: 0x100006C98, symSize: 0x3C }
  - { offsetInCU: 0xEEB3, offset: 0x14F0C, size: 0x8, addend: 0x0, symName: __ZNSt3__14pairIP6GPointS2_EC2B8ue170006IS2_S2_LPv0EEEOT_OT0_, symObjAddr: 0x4F2C, symBinAddr: 0x100006CD4, symSize: 0x34 }
  - { offsetInCU: 0xEF10, offset: 0x14F69, size: 0x8, addend: 0x0, symName: __ZNSt3__118__unwrap_iter_implIP6GPointLb1EE8__unwrapB8ue170006ES2_, symObjAddr: 0x4F60, symBinAddr: 0x100006D08, symSize: 0x24 }
  - { offsetInCU: 0xEF33, offset: 0x14F8C, size: 0x8, addend: 0x0, symName: __ZNSt3__118__unwrap_iter_implIP6GPointLb1EE8__rewrapB8ue170006ES2_S2_, symObjAddr: 0x4F84, symBinAddr: 0x100006D2C, symSize: 0x50 }
  - { offsetInCU: 0xEF6E, offset: 0x14FC7, size: 0x8, addend: 0x0, symName: __ZNKSt3__114__copy_trivialclB8ue170006I6GPointS2_Li0EEENS_4pairIPT_PT0_EES5_S5_S7_, symObjAddr: 0x50CC, symBinAddr: 0x100006E74, symSize: 0x48 }
  - { offsetInCU: 0xEFD4, offset: 0x1502D, size: 0x8, addend: 0x0, symName: __ZNSt3__14pairIP6GPointS2_EC1B8ue170006IRS2_S2_LPv0EEEOT_OT0_, symObjAddr: 0x525C, symBinAddr: 0x100007004, symSize: 0x3C }
  - { offsetInCU: 0xF031, offset: 0x1508A, size: 0x8, addend: 0x0, symName: __ZNSt3__14pairIP6GPointS2_EC2B8ue170006IRS2_S2_LPv0EEEOT_OT0_, symObjAddr: 0x5298, symBinAddr: 0x100007040, symSize: 0x34 }
  - { offsetInCU: 0xF08E, offset: 0x150E7, size: 0x8, addend: 0x0, symName: __ZNKSt3__16vectorI6GPointNS_9allocatorIS1_EEE17__annotate_shrinkB8ue170006Em, symObjAddr: 0x52CC, symBinAddr: 0x100007074, symSize: 0xB4 }
  - { offsetInCU: 0xF0C1, offset: 0x1511A, size: 0x8, addend: 0x0, symName: __ZNSt3__16vectorIN5GPath4VerbENS_9allocatorIS2_EEE19__copy_assign_allocB8ue170006ERKS5_, symObjAddr: 0x53A8, symBinAddr: 0x100007150, symSize: 0x2C }
  - { offsetInCU: 0xF0F3, offset: 0x1514C, size: 0x8, addend: 0x0, symName: __ZNSt3__16vectorIN5GPath4VerbENS_9allocatorIS2_EEE6assignIPS2_Li0EEEvT_S8_, symObjAddr: 0x53D4, symBinAddr: 0x10000717C, symSize: 0x5C }
  - { offsetInCU: 0xF148, offset: 0x151A1, size: 0x8, addend: 0x0, symName: __ZNSt3__16vectorIN5GPath4VerbENS_9allocatorIS2_EEE19__copy_assign_allocB8ue170006ERKS5_NS_17integral_constantIbLb0EEE, symObjAddr: 0x5430, symBinAddr: 0x1000071D8, symSize: 0x14 }
  - { offsetInCU: 0xF181, offset: 0x151DA, size: 0x8, addend: 0x0, symName: __ZNSt3__16vectorIN5GPath4VerbENS_9allocatorIS2_EEE18__assign_with_sizeB8ue170006IPS2_S7_EEvT_T0_l, symObjAddr: 0x5444, symBinAddr: 0x1000071EC, symSize: 0x164 }
  - { offsetInCU: 0xF230, offset: 0x15289, size: 0x8, addend: 0x0, symName: __ZNSt3__16vectorIN5GPath4VerbENS_9allocatorIS2_EEE18__construct_at_endIPS2_S7_EEvT_T0_m, symObjAddr: 0x5648, symBinAddr: 0x1000073F0, symSize: 0x8C }
  - { offsetInCU: 0xF2A6, offset: 0x152FF, size: 0x8, addend: 0x0, symName: __ZNSt3__16vectorIN5GPath4VerbENS_9allocatorIS2_EEE17__destruct_at_endB8ue170006EPS2_, symObjAddr: 0x5718, symBinAddr: 0x1000074C0, symSize: 0x4C }
  - { offsetInCU: 0xF2E7, offset: 0x15340, size: 0x8, addend: 0x0, symName: __ZNSt3__16vectorIN5GPath4VerbENS_9allocatorIS2_EEE13__vdeallocateEv, symObjAddr: 0x5764, symBinAddr: 0x10000750C, symSize: 0x94 }
  - { offsetInCU: 0xF30F, offset: 0x15368, size: 0x8, addend: 0x0, symName: __ZNSt3__16vectorIN5GPath4VerbENS_9allocatorIS2_EEE11__vallocateB8ue170006Em, symObjAddr: 0x57F8, symBinAddr: 0x1000075A0, symSize: 0xAC }
  - { offsetInCU: 0xF371, offset: 0x153CA, size: 0x8, addend: 0x0, symName: __ZNSt3__14pairIPN5GPath4VerbES3_EC1B8ue170006IS3_S3_LPv0EEEOT_OT0_, symObjAddr: 0x5AB4, symBinAddr: 0x10000785C, symSize: 0x3C }
  - { offsetInCU: 0xF3CE, offset: 0x15427, size: 0x8, addend: 0x0, symName: __ZNSt3__14pairIPN5GPath4VerbES3_EC2B8ue170006IS3_S3_LPv0EEEOT_OT0_, symObjAddr: 0x5AF0, symBinAddr: 0x100007898, symSize: 0x34 }
  - { offsetInCU: 0xF42B, offset: 0x15484, size: 0x8, addend: 0x0, symName: __ZNSt3__118__unwrap_iter_implIPN5GPath4VerbELb1EE8__unwrapB8ue170006ES3_, symObjAddr: 0x5B24, symBinAddr: 0x1000078CC, symSize: 0x24 }
  - { offsetInCU: 0xF44E, offset: 0x154A7, size: 0x8, addend: 0x0, symName: __ZNSt3__118__unwrap_iter_implIPN5GPath4VerbELb1EE8__rewrapB8ue170006ES3_S3_, symObjAddr: 0x5B48, symBinAddr: 0x1000078F0, symSize: 0x50 }
  - { offsetInCU: 0xF47F, offset: 0x154D8, size: 0x8, addend: 0x0, symName: __ZNKSt3__114__copy_trivialclB8ue170006IN5GPath4VerbES3_Li0EEENS_4pairIPT_PT0_EES6_S6_S8_, symObjAddr: 0x5C90, symBinAddr: 0x100007A38, symSize: 0x48 }
  - { offsetInCU: 0xF4E5, offset: 0x1553E, size: 0x8, addend: 0x0, symName: __ZNSt3__14pairIPN5GPath4VerbES3_EC1B8ue170006IRS3_S3_LPv0EEEOT_OT0_, symObjAddr: 0x5E20, symBinAddr: 0x100007BC8, symSize: 0x3C }
  - { offsetInCU: 0xF542, offset: 0x1559B, size: 0x8, addend: 0x0, symName: __ZNSt3__14pairIPN5GPath4VerbES3_EC2B8ue170006IRS3_S3_LPv0EEEOT_OT0_, symObjAddr: 0x5E5C, symBinAddr: 0x100007C04, symSize: 0x34 }
  - { offsetInCU: 0xF59F, offset: 0x155F8, size: 0x8, addend: 0x0, symName: __ZNKSt3__16vectorIN5GPath4VerbENS_9allocatorIS2_EEE17__annotate_shrinkB8ue170006Em, symObjAddr: 0x5E90, symBinAddr: 0x100007C38, symSize: 0xB4 }
  - { offsetInCU: 0x26, offset: 0x15774, size: 0x8, addend: 0x0, symName: __ZN5GTime7GetMSecEv, symObjAddr: 0x0, symBinAddr: 0x100007D14, symSize: 0x64 }
  - { offsetInCU: 0x2963, offset: 0x180B1, size: 0x8, addend: 0x0, symName: __ZN5GTime7GetMSecEv, symObjAddr: 0x0, symBinAddr: 0x100007D14, symSize: 0x64 }
  - { offsetInCU: 0x52, offset: 0x1815F, size: 0x8, addend: 0x0, symName: _LODEPNG_VERSION_STRING, symObjAddr: 0x1A950, symBinAddr: 0x100044000, symSize: 0x0 }
  - { offsetInCU: 0x6E, offset: 0x1817B, size: 0x8, addend: 0x0, symName: _lodepng_default_compress_settings, symObjAddr: 0x1AD58, symBinAddr: 0x10003E938, symSize: 0x0 }
  - { offsetInCU: 0x178, offset: 0x18285, size: 0x8, addend: 0x0, symName: _lodepng_default_decompress_settings, symObjAddr: 0x1AD88, symBinAddr: 0x10003E968, symSize: 0x0 }
  - { offsetInCU: 0x20C, offset: 0x18319, size: 0x8, addend: 0x0, symName: __ZL10CLCL_ORDER, symObjAddr: 0x1AFA0, symBinAddr: 0x10003EB80, symSize: 0x0 }
  - { offsetInCU: 0x238, offset: 0x18345, size: 0x8, addend: 0x0, symName: __ZL10LENGTHBASE, symObjAddr: 0x1ADC8, symBinAddr: 0x10003E9A8, symSize: 0x0 }
  - { offsetInCU: 0x25F, offset: 0x1836C, size: 0x8, addend: 0x0, symName: __ZL11LENGTHEXTRA, symObjAddr: 0x1AE3C, symBinAddr: 0x10003EA1C, symSize: 0x0 }
  - { offsetInCU: 0x27A, offset: 0x18387, size: 0x8, addend: 0x0, symName: __ZL12DISTANCEBASE, symObjAddr: 0x1AEB0, symBinAddr: 0x10003EA90, symSize: 0x0 }
  - { offsetInCU: 0x2A1, offset: 0x183AE, size: 0x8, addend: 0x0, symName: __ZL13DISTANCEEXTRA, symObjAddr: 0x1AF28, symBinAddr: 0x10003EB08, symSize: 0x0 }
  - { offsetInCU: 0x2F0, offset: 0x183FD, size: 0x8, addend: 0x0, symName: __ZL19lodepng_crc32_table, symObjAddr: 0x1A958, symBinAddr: 0x100044008, symSize: 0x0 }
  - { offsetInCU: 0x319, offset: 0x18426, size: 0x8, addend: 0x0, symName: __ZL8ADAM7_DX, symObjAddr: 0x1AFEC, symBinAddr: 0x10003EBCC, symSize: 0x0 }
  - { offsetInCU: 0x340, offset: 0x1844D, size: 0x8, addend: 0x0, symName: __ZL8ADAM7_IX, symObjAddr: 0x1B008, symBinAddr: 0x10003EBE8, symSize: 0x0 }
  - { offsetInCU: 0x35B, offset: 0x18468, size: 0x8, addend: 0x0, symName: __ZL8ADAM7_DY, symObjAddr: 0x1B024, symBinAddr: 0x10003EC04, symSize: 0x0 }
  - { offsetInCU: 0x376, offset: 0x18483, size: 0x8, addend: 0x0, symName: __ZL8ADAM7_IY, symObjAddr: 0x1B040, symBinAddr: 0x10003EC20, symSize: 0x0 }
  - { offsetInCU: 0x3EA7, offset: 0x1BFB4, size: 0x8, addend: 0x0, symName: __ZNSt3__17advanceB8ue170006IPhllvEEvRT_T0_, symObjAddr: 0x185BC, symBinAddr: 0x10001FEE8, symSize: 0x38 }
  - { offsetInCU: 0x4A24, offset: 0x1CB31, size: 0x8, addend: 0x0, symName: __ZNSt3__112__to_addressB8ue170006IKcEEPT_S3_, symObjAddr: 0x1631C, symBinAddr: 0x10001E088, symSize: 0x14 }
  - { offsetInCU: 0x4A8C, offset: 0x1CB99, size: 0x8, addend: 0x0, symName: __ZNSt3__112__to_addressB8ue170006IhEEPT_S2_, symObjAddr: 0x16A44, symBinAddr: 0x10001E7B0, symSize: 0x14 }
  - { offsetInCU: 0x4AC1, offset: 0x1CBCE, size: 0x8, addend: 0x0, symName: __ZNSt3__119__allocate_at_leastB8ue170006INS_9allocatorIhEEEENS_19__allocation_resultINS_16allocator_traitsIT_E7pointerEEERS5_m, symObjAddr: 0x1702C, symBinAddr: 0x10001EB64, symSize: 0x40 }
  - { offsetInCU: 0x4B04, offset: 0x1CC11, size: 0x8, addend: 0x0, symName: __ZNSt3__142__uninitialized_allocator_move_if_noexceptB8ue170006INS_9allocatorIhEENS_16reverse_iteratorIPhEES5_hvEET1_RT_T0_S9_S6_, symObjAddr: 0x17484, symBinAddr: 0x10001EEB8, symSize: 0x78 }
  - { offsetInCU: 0x4B81, offset: 0x1CC8E, size: 0x8, addend: 0x0, symName: __ZNSt3__14swapB8ue170006IPhEENS_9enable_ifIXaasr21is_move_constructibleIT_EE5valuesr18is_move_assignableIS3_EE5valueEvE4typeERS3_S6_, symObjAddr: 0x17548, symBinAddr: 0x10001EF7C, symSize: 0x3C }
  - { offsetInCU: 0x4BD2, offset: 0x1CCDF, size: 0x8, addend: 0x0, symName: __ZNSt3__14moveB8ue170006INS_16reverse_iteratorIPhEES3_EET0_T_S5_S4_, symObjAddr: 0x17678, symBinAddr: 0x10001F0AC, symSize: 0x78 }
  - { offsetInCU: 0x4C2C, offset: 0x1CD39, size: 0x8, addend: 0x0, symName: __ZNSt3__16__moveB8ue170006INS_17_ClassicAlgPolicyENS_16reverse_iteratorIPhEES4_S4_EENS_4pairIT0_T2_EES6_T1_S7_, symObjAddr: 0x176F0, symBinAddr: 0x10001F124, symSize: 0x64 }
  - { offsetInCU: 0x4C98, offset: 0x1CDA5, size: 0x8, addend: 0x0, symName: __ZNSt3__123__dispatch_copy_or_moveB8ue170006INS_17_ClassicAlgPolicyENS_11__move_loopIS1_EENS_14__move_trivialENS_16reverse_iteratorIPhEES7_S7_EENS_4pairIT2_T4_EES9_T3_SA_, symObjAddr: 0x17754, symBinAddr: 0x10001F188, symSize: 0x64 }
  - { offsetInCU: 0x4D16, offset: 0x1CE23, size: 0x8, addend: 0x0, symName: __ZNSt3__121__unwrap_and_dispatchB8ue170006INS_10__overloadINS_11__move_loopINS_17_ClassicAlgPolicyEEENS_14__move_trivialEEENS_16reverse_iteratorIPhEES9_S9_Li0EEENS_4pairIT0_T2_EESB_T1_SC_, symObjAddr: 0x177B8, symBinAddr: 0x10001F1EC, symSize: 0x12C }
  - { offsetInCU: 0x4DA6, offset: 0x1CEB3, size: 0x8, addend: 0x0, symName: __ZNSt3__114__unwrap_rangeB8ue170006INS_16reverse_iteratorIPhEES3_EENS_4pairIT0_S5_EET_S7_, symObjAddr: 0x178E4, symBinAddr: 0x10001F318, symSize: 0x84 }
  - { offsetInCU: 0x4F18, offset: 0x1D025, size: 0x8, addend: 0x0, symName: __ZNSt3__113__unwrap_iterB8ue170006INS_16reverse_iteratorIPhEENS_18__unwrap_iter_implIS3_Lb0EEELi0EEEDTclsrT0_8__unwrapclsr3stdE7declvalIT_EEEES7_, symObjAddr: 0x17A08, symBinAddr: 0x10001F43C, symSize: 0x44 }
  - { offsetInCU: 0x4F5C, offset: 0x1D069, size: 0x8, addend: 0x0, symName: __ZNSt3__19make_pairB8ue170006INS_16reverse_iteratorIPhEES3_EENS_4pairINS_18__unwrap_ref_decayIT_E4typeENS5_IT0_E4typeEEEOS6_OS9_, symObjAddr: 0x17A4C, symBinAddr: 0x10001F480, symSize: 0x38 }
  - { offsetInCU: 0x4FAB, offset: 0x1D0B8, size: 0x8, addend: 0x0, symName: __ZNSt3__114__rewrap_rangeB8ue170006INS_16reverse_iteratorIPhEES3_EET_S4_T0_, symObjAddr: 0x17A84, symBinAddr: 0x10001F4B8, symSize: 0x5C }
  - { offsetInCU: 0x4FF7, offset: 0x1D104, size: 0x8, addend: 0x0, symName: __ZNSt3__113__rewrap_iterB8ue170006INS_16reverse_iteratorIPhEES3_NS_18__unwrap_iter_implIS3_Lb0EEEEET_S6_T0_, symObjAddr: 0x17AE0, symBinAddr: 0x10001F514, symSize: 0x74 }
  - { offsetInCU: 0x504C, offset: 0x1D159, size: 0x8, addend: 0x0, symName: __ZNSt3__1neB8ue170006IPhS1_EEbRKNS_16reverse_iteratorIT_EERKNS2_IT0_EE, symObjAddr: 0x17B54, symBinAddr: 0x10001F588, symSize: 0x48 }
  - { offsetInCU: 0x514A, offset: 0x1D257, size: 0x8, addend: 0x0, symName: __ZNSt3__18distanceB8ue170006IPhEENS_15iterator_traitsIT_E15difference_typeES3_S3_, symObjAddr: 0x184EC, symBinAddr: 0x10001FE18, symSize: 0x2C }
  - { offsetInCU: 0x518D, offset: 0x1D29A, size: 0x8, addend: 0x0, symName: __ZNSt3__1miB8ue170006IPKhPhEEDTmicldtfp_4baseEcldtfp0_4baseEERKNS_11__wrap_iterIT_EERKNS5_IT0_EE, symObjAddr: 0x18518, symBinAddr: 0x10001FE44, symSize: 0x40 }
  - { offsetInCU: 0x51D9, offset: 0x1D2E6, size: 0x8, addend: 0x0, symName: __ZNSt3__14nextB8ue170006IPhEENS_9enable_ifIXsr29__has_input_iterator_categoryIT_EE5valueES3_E4typeES3_NS_15iterator_traitsIS3_E15difference_typeE, symObjAddr: 0x18588, symBinAddr: 0x10001FEB4, symSize: 0x34 }
  - { offsetInCU: 0x521C, offset: 0x1D329, size: 0x8, addend: 0x0, symName: __ZNSt3__14copyB8ue170006IPhS1_EET0_T_S3_S2_, symObjAddr: 0x187A0, symBinAddr: 0x1000200CC, symSize: 0x40 }
  - { offsetInCU: 0x5276, offset: 0x1D383, size: 0x8, addend: 0x0, symName: __ZNSt3__19__advanceB8ue170006IPhEEvRT_NS_15iterator_traitsIS2_E15difference_typeENS_26random_access_iterator_tagE, symObjAddr: 0x18A20, symBinAddr: 0x100020338, symSize: 0x28 }
  - { offsetInCU: 0x52C0, offset: 0x1D3CD, size: 0x8, addend: 0x0, symName: __ZNSt3__130__uninitialized_allocator_copyB8ue170006INS_9allocatorIhEEPhS3_S3_EET2_RT_T0_T1_S4_, symObjAddr: 0x18A48, symBinAddr: 0x100020360, symSize: 0x80 }
  - { offsetInCU: 0x535D, offset: 0x1D46A, size: 0x8, addend: 0x0, symName: __ZNSt3__114__unwrap_rangeB8ue170006IPhS1_EENS_4pairIT0_S3_EET_S5_, symObjAddr: 0x18AC8, symBinAddr: 0x1000203E0, symSize: 0x60 }
  - { offsetInCU: 0x53A9, offset: 0x1D4B6, size: 0x8, addend: 0x0, symName: __ZNSt3__135__uninitialized_allocator_copy_implB8ue170006INS_9allocatorIhEEhhhLPv0EEEPT2_RT_PT0_S9_S5_, symObjAddr: 0x18B28, symBinAddr: 0x100020440, symSize: 0x38 }
  - { offsetInCU: 0x542A, offset: 0x1D537, size: 0x8, addend: 0x0, symName: __ZNSt3__113__unwrap_iterB8ue170006IPhNS_18__unwrap_iter_implIS1_Lb1EEELi0EEEDTclsrT0_8__unwrapclsr3stdE7declvalIT_EEEES5_, symObjAddr: 0x18B60, symBinAddr: 0x100020478, symSize: 0x24 }
  - { offsetInCU: 0x546E, offset: 0x1D57B, size: 0x8, addend: 0x0, symName: __ZNSt3__113__rewrap_iterB8ue170006IPhS1_NS_18__unwrap_iter_implIS1_Lb1EEEEET_S4_T0_, symObjAddr: 0x18B84, symBinAddr: 0x10002049C, symSize: 0x3C }
  - { offsetInCU: 0x54C3, offset: 0x1D5D0, size: 0x8, addend: 0x0, symName: __ZNSt3__19make_pairB8ue170006IPhS1_EENS_4pairINS_18__unwrap_ref_decayIT_E4typeENS3_IT0_E4typeEEEOS4_OS7_, symObjAddr: 0x18BC0, symBinAddr: 0x1000204D8, symSize: 0x38 }
  - { offsetInCU: 0x5697, offset: 0x1D7A4, size: 0x8, addend: 0x0, symName: __ZNSt3__113move_backwardB8ue170006IPhS1_EET0_T_S3_S2_, symObjAddr: 0x18D08, symBinAddr: 0x100020620, symSize: 0x40 }
  - { offsetInCU: 0x56F1, offset: 0x1D7FE, size: 0x8, addend: 0x0, symName: __ZNSt3__115__move_backwardB8ue170006INS_17_ClassicAlgPolicyEPhS2_S2_EENS_4pairIT0_T2_EES4_T1_S5_, symObjAddr: 0x18D70, symBinAddr: 0x100020688, symSize: 0x44 }
  - { offsetInCU: 0x575D, offset: 0x1D86A, size: 0x8, addend: 0x0, symName: __ZNSt3__123__dispatch_copy_or_moveB8ue170006INS_17_ClassicAlgPolicyENS_20__move_backward_loopIS1_EENS_23__move_backward_trivialEPhS5_S5_EENS_4pairIT2_T4_EES7_T3_S8_, symObjAddr: 0x18DB4, symBinAddr: 0x1000206CC, symSize: 0x44 }
  - { offsetInCU: 0x57DB, offset: 0x1D8E8, size: 0x8, addend: 0x0, symName: __ZNSt3__121__unwrap_and_dispatchB8ue170006INS_10__overloadINS_20__move_backward_loopINS_17_ClassicAlgPolicyEEENS_23__move_backward_trivialEEEPhS7_S7_Li0EEENS_4pairIT0_T2_EES9_T1_SA_, symObjAddr: 0x18DF8, symBinAddr: 0x100020710, symSize: 0xB4 }
  - { offsetInCU: 0x58AF, offset: 0x1D9BC, size: 0x8, addend: 0x0, symName: __ZNSt3__114__rewrap_rangeB8ue170006IPhS1_EET_S2_T0_, symObjAddr: 0x18EF4, symBinAddr: 0x10002080C, symSize: 0x2C }
  - { offsetInCU: 0x58FB, offset: 0x1DA08, size: 0x8, addend: 0x0, symName: __ZNSt3__128__copy_backward_trivial_implB8ue170006IhhEENS_4pairIPT_PT0_EES3_S3_S5_, symObjAddr: 0x18F20, symBinAddr: 0x100020838, symSize: 0x80 }
  - { offsetInCU: 0x5963, offset: 0x1DA70, size: 0x8, addend: 0x0, symName: __ZNSt3__119__constexpr_memmoveB8ue170006IhhLi0EEEPT_S2_PT0_NS_15__element_countE, symObjAddr: 0x18FA0, symBinAddr: 0x1000208B8, symSize: 0x64 }
  - { offsetInCU: 0x59D1, offset: 0x1DADE, size: 0x8, addend: 0x0, symName: __ZNSt3__19make_pairB8ue170006IRPhS2_EENS_4pairINS_18__unwrap_ref_decayIT_E4typeENS4_IT0_E4typeEEEOS5_OS8_, symObjAddr: 0x19004, symBinAddr: 0x10002091C, symSize: 0x38 }
  - { offsetInCU: 0x5A20, offset: 0x1DB2D, size: 0x8, addend: 0x0, symName: __ZNSt3__16__copyB8ue170006INS_17_ClassicAlgPolicyEPhS2_S2_EENS_4pairIT0_T2_EES4_T1_S5_, symObjAddr: 0x190AC, symBinAddr: 0x1000209C4, symSize: 0x44 }
  - { offsetInCU: 0x5A8C, offset: 0x1DB99, size: 0x8, addend: 0x0, symName: __ZNSt3__123__dispatch_copy_or_moveB8ue170006INS_17_ClassicAlgPolicyENS_11__copy_loopIS1_EENS_14__copy_trivialEPhS5_S5_EENS_4pairIT2_T4_EES7_T3_S8_, symObjAddr: 0x190F0, symBinAddr: 0x100020A08, symSize: 0x44 }
  - { offsetInCU: 0x5B0A, offset: 0x1DC17, size: 0x8, addend: 0x0, symName: __ZNSt3__121__unwrap_and_dispatchB8ue170006INS_10__overloadINS_11__copy_loopINS_17_ClassicAlgPolicyEEENS_14__copy_trivialEEEPhS7_S7_Li0EEENS_4pairIT0_T2_EES9_T1_SA_, symObjAddr: 0x19134, symBinAddr: 0x100020A4C, symSize: 0xB4 }
  - { offsetInCU: 0x5BDE, offset: 0x1DCEB, size: 0x8, addend: 0x0, symName: __ZNSt3__119__copy_trivial_implB8ue170006IhhEENS_4pairIPT_PT0_EES3_S3_S5_, symObjAddr: 0x19230, symBinAddr: 0x100020B48, symSize: 0x78 }
  - { offsetInCU: 0x5C46, offset: 0x1DD53, size: 0x8, addend: 0x0, symName: __ZNSt3__19make_pairB8ue170006IRPhS1_EENS_4pairINS_18__unwrap_ref_decayIT_E4typeENS4_IT0_E4typeEEEOS5_OS8_, symObjAddr: 0x192A8, symBinAddr: 0x100020BC0, symSize: 0x38 }
  - { offsetInCU: 0x5C95, offset: 0x1DDA2, size: 0x8, addend: 0x0, symName: __ZNSt3__142__uninitialized_allocator_move_if_noexceptB8ue170006INS_9allocatorIhEEPhS3_hvEET1_RT_T0_S7_S4_, symObjAddr: 0x193AC, symBinAddr: 0x100020CC4, symSize: 0x38 }
  - { offsetInCU: 0x5D11, offset: 0x1DE1E, size: 0x8, addend: 0x0, symName: __ZNSt3__14moveB8ue170006IPhS1_EET0_T_S3_S2_, symObjAddr: 0x193E4, symBinAddr: 0x100020CFC, symSize: 0x40 }
  - { offsetInCU: 0x5D6B, offset: 0x1DE78, size: 0x8, addend: 0x0, symName: __ZNSt3__16__moveB8ue170006INS_17_ClassicAlgPolicyEPhS2_S2_EENS_4pairIT0_T2_EES4_T1_S5_, symObjAddr: 0x19424, symBinAddr: 0x100020D3C, symSize: 0x44 }
  - { offsetInCU: 0x5DD7, offset: 0x1DEE4, size: 0x8, addend: 0x0, symName: __ZNSt3__123__dispatch_copy_or_moveB8ue170006INS_17_ClassicAlgPolicyENS_11__move_loopIS1_EENS_14__move_trivialEPhS5_S5_EENS_4pairIT2_T4_EES7_T3_S8_, symObjAddr: 0x19468, symBinAddr: 0x100020D80, symSize: 0x44 }
  - { offsetInCU: 0x5E55, offset: 0x1DF62, size: 0x8, addend: 0x0, symName: __ZNSt3__121__unwrap_and_dispatchB8ue170006INS_10__overloadINS_11__move_loopINS_17_ClassicAlgPolicyEEENS_14__move_trivialEEEPhS7_S7_Li0EEENS_4pairIT0_T2_EES9_T1_SA_, symObjAddr: 0x194AC, symBinAddr: 0x100020DC4, symSize: 0xB4 }
  - { offsetInCU: 0x5F29, offset: 0x1E036, size: 0x8, addend: 0x0, symName: __ZNSt3__110__distanceB8ue170006IPhEENS_15iterator_traitsIT_E15difference_typeES3_S3_NS_26random_access_iterator_tagE, symObjAddr: 0x195A8, symBinAddr: 0x100020EC0, symSize: 0x20 }
  - { offsetInCU: 0x63D2, offset: 0x1E4DF, size: 0x8, addend: 0x0, symName: __ZNSt3__16vectorIhNS_9allocatorIhEEE26__swap_out_circular_bufferERNS_14__split_bufferIhRS2_EE, symObjAddr: 0x16868, symBinAddr: 0x10001E5D4, symSize: 0x110 }
  - { offsetInCU: 0x6428, offset: 0x1E535, size: 0x8, addend: 0x0, symName: __ZNSt3__16vectorIhNS_9allocatorIhEEE26__swap_out_circular_bufferERNS_14__split_bufferIhRS2_EEPh, symObjAddr: 0x188A8, symBinAddr: 0x1000201D4, symSize: 0x14C }
  - { offsetInCU: 0x8214, offset: 0x20321, size: 0x8, addend: 0x0, symName: __Z20lodepng_read32bitIntPKh, symObjAddr: 0x0, symBinAddr: 0x100007D78, symSize: 0x40 }
  - { offsetInCU: 0x8242, offset: 0x2034F, size: 0x8, addend: 0x0, symName: __Z17lodepng_load_filePPhPmPKc, symObjAddr: 0x40, symBinAddr: 0x100007DB8, symSize: 0xC4 }
  - { offsetInCU: 0x829E, offset: 0x203AB, size: 0x8, addend: 0x0, symName: __ZL16lodepng_filesizePKc, symObjAddr: 0x104, symBinAddr: 0x100007E7C, symSize: 0xCC }
  - { offsetInCU: 0x82EB, offset: 0x203F8, size: 0x8, addend: 0x0, symName: __ZL14lodepng_mallocm, symObjAddr: 0x1D0, symBinAddr: 0x100007F48, symSize: 0x24 }
  - { offsetInCU: 0x8317, offset: 0x20424, size: 0x8, addend: 0x0, symName: __ZL19lodepng_buffer_filePhmPKc, symObjAddr: 0x1F4, symBinAddr: 0x100007F6C, symSize: 0xA8 }
  - { offsetInCU: 0x8381, offset: 0x2048E, size: 0x8, addend: 0x0, symName: __Z17lodepng_save_filePKhmPKc, symObjAddr: 0x29C, symBinAddr: 0x100008014, symSize: 0x80 }
  - { offsetInCU: 0x83DC, offset: 0x204E9, size: 0x8, addend: 0x0, symName: __Z28lodepng_huffman_code_lengthsPjPKjmj, symObjAddr: 0x31C, symBinAddr: 0x100008094, symSize: 0x530 }
  - { offsetInCU: 0x84A0, offset: 0x205AD, size: 0x8, addend: 0x0, symName: __ZL12bpmnode_sortP7BPMNodem, symObjAddr: 0x84C, symBinAddr: 0x1000085C4, symSize: 0x328 }
  - { offsetInCU: 0x859D, offset: 0x206AA, size: 0x8, addend: 0x0, symName: __ZL14bpmnode_createP8BPMListsijP7BPMNode, symObjAddr: 0xB74, symBinAddr: 0x1000088EC, symSize: 0x260 }
  - { offsetInCU: 0x8634, offset: 0x20741, size: 0x8, addend: 0x0, symName: __ZL10boundaryPMP8BPMListsP7BPMNodemii, symObjAddr: 0xDD4, symBinAddr: 0x100008B4C, symSize: 0x250 }
  - { offsetInCU: 0x86C7, offset: 0x207D4, size: 0x8, addend: 0x0, symName: __ZL12lodepng_freePv, symObjAddr: 0x1024, symBinAddr: 0x100008D9C, symSize: 0x24 }
  - { offsetInCU: 0x86EE, offset: 0x207FB, size: 0x8, addend: 0x0, symName: __Z15lodepng_inflatePPhPmPKhmPK25LodePNGDecompressSettings, symObjAddr: 0x1048, symBinAddr: 0x100008DC0, symSize: 0x7C }
  - { offsetInCU: 0x8777, offset: 0x20884, size: 0x8, addend: 0x0, symName: __ZL20ucvector_init_bufferP8ucvectorPhm, symObjAddr: 0x10C4, symBinAddr: 0x100008E3C, symSize: 0x38 }
  - { offsetInCU: 0x87C0, offset: 0x208CD, size: 0x8, addend: 0x0, symName: __ZL16lodepng_inflatevP8ucvectorPKhmPK25LodePNGDecompressSettings, symObjAddr: 0x10FC, symBinAddr: 0x100008E74, symSize: 0x188 }
  - { offsetInCU: 0x8874, offset: 0x20981, size: 0x8, addend: 0x0, symName: __Z15lodepng_deflatePPhPmPKhmPK23LodePNGCompressSettings, symObjAddr: 0x1284, symBinAddr: 0x100008FFC, symSize: 0x7C }
  - { offsetInCU: 0x88FD, offset: 0x20A0A, size: 0x8, addend: 0x0, symName: __ZL16lodepng_deflatevP8ucvectorPKhmPK23LodePNGCompressSettings, symObjAddr: 0x1300, symBinAddr: 0x100009078, symSize: 0x2D8 }
  - { offsetInCU: 0x89EF, offset: 0x20AFC, size: 0x8, addend: 0x0, symName: __Z23lodepng_zlib_decompressPPhPmPKhmPK25LodePNGDecompressSettings, symObjAddr: 0x15D8, symBinAddr: 0x100009350, symSize: 0x1E0 }
  - { offsetInCU: 0x8AC2, offset: 0x20BCF, size: 0x8, addend: 0x0, symName: __ZL7inflatePPhPmPKhmPK25LodePNGDecompressSettings, symObjAddr: 0x17B8, symBinAddr: 0x100009530, symSize: 0x90 }
  - { offsetInCU: 0x8B2D, offset: 0x20C3A, size: 0x8, addend: 0x0, symName: __ZL7adler32PKhj, symObjAddr: 0x1848, symBinAddr: 0x1000095C0, symSize: 0x30 }
  - { offsetInCU: 0x8B6A, offset: 0x20C77, size: 0x8, addend: 0x0, symName: __Z21lodepng_zlib_compressPPhPmPKhmPK23LodePNGCompressSettings, symObjAddr: 0x1878, symBinAddr: 0x1000095F0, symSize: 0x1A0 }
  - { offsetInCU: 0x8C8A, offset: 0x20D97, size: 0x8, addend: 0x0, symName: __ZL18ucvector_push_backP8ucvectorh, symObjAddr: 0x1A18, symBinAddr: 0x100009790, symSize: 0x7C }
  - { offsetInCU: 0x8CC8, offset: 0x20DD5, size: 0x8, addend: 0x0, symName: __ZL7deflatePPhPmPKhmPK23LodePNGCompressSettings, symObjAddr: 0x1A94, symBinAddr: 0x10000980C, symSize: 0x90 }
  - { offsetInCU: 0x8D33, offset: 0x20E40, size: 0x8, addend: 0x0, symName: __ZL19lodepng_add32bitIntP8ucvectorj, symObjAddr: 0x1B24, symBinAddr: 0x10000989C, symSize: 0x54 }
  - { offsetInCU: 0x8D6D, offset: 0x20E7A, size: 0x8, addend: 0x0, symName: __Z30lodepng_compress_settings_initP23LodePNGCompressSettings, symObjAddr: 0x1B78, symBinAddr: 0x1000098F0, symSize: 0x6C }
  - { offsetInCU: 0x8D98, offset: 0x20EA5, size: 0x8, addend: 0x0, symName: __Z32lodepng_decompress_settings_initP25LodePNGDecompressSettings, symObjAddr: 0x1BE4, symBinAddr: 0x10000995C, symSize: 0x30 }
  - { offsetInCU: 0x8DC2, offset: 0x20ECF, size: 0x8, addend: 0x0, symName: __Z13lodepng_crc32PKhm, symObjAddr: 0x1C14, symBinAddr: 0x10000998C, symSize: 0x88 }
  - { offsetInCU: 0x8E1D, offset: 0x20F2A, size: 0x8, addend: 0x0, symName: __Z20lodepng_chunk_lengthPKh, symObjAddr: 0x1C9C, symBinAddr: 0x100009A14, symSize: 0x24 }
  - { offsetInCU: 0x8E4C, offset: 0x20F59, size: 0x8, addend: 0x0, symName: __Z18lodepng_chunk_typePcPKh, symObjAddr: 0x1CC0, symBinAddr: 0x100009A38, symSize: 0x70 }
  - { offsetInCU: 0x8E94, offset: 0x20FA1, size: 0x8, addend: 0x0, symName: __Z25lodepng_chunk_type_equalsPKhPKc, symObjAddr: 0x1D30, symBinAddr: 0x100009AA8, symSize: 0xEC }
  - { offsetInCU: 0x8ED1, offset: 0x20FDE, size: 0x8, addend: 0x0, symName: __Z23lodepng_chunk_ancillaryPKh, symObjAddr: 0x1E1C, symBinAddr: 0x100009B94, symSize: 0x24 }
  - { offsetInCU: 0x8EFF, offset: 0x2100C, size: 0x8, addend: 0x0, symName: __Z21lodepng_chunk_privatePKh, symObjAddr: 0x1E40, symBinAddr: 0x100009BB8, symSize: 0x24 }
  - { offsetInCU: 0x8F2D, offset: 0x2103A, size: 0x8, addend: 0x0, symName: __Z24lodepng_chunk_safetocopyPKh, symObjAddr: 0x1E64, symBinAddr: 0x100009BDC, symSize: 0x24 }
  - { offsetInCU: 0x8F5B, offset: 0x21068, size: 0x8, addend: 0x0, symName: __Z18lodepng_chunk_dataPh, symObjAddr: 0x1E88, symBinAddr: 0x100009C00, symSize: 0x18 }
  - { offsetInCU: 0x8F89, offset: 0x21096, size: 0x8, addend: 0x0, symName: __Z24lodepng_chunk_data_constPKh, symObjAddr: 0x1EA0, symBinAddr: 0x100009C18, symSize: 0x18 }
  - { offsetInCU: 0x8FB7, offset: 0x210C4, size: 0x8, addend: 0x0, symName: __Z23lodepng_chunk_check_crcPKh, symObjAddr: 0x1EB8, symBinAddr: 0x100009C30, symSize: 0x8C }
  - { offsetInCU: 0x9012, offset: 0x2111F, size: 0x8, addend: 0x0, symName: __Z26lodepng_chunk_generate_crcPh, symObjAddr: 0x1F44, symBinAddr: 0x100009CBC, symSize: 0x5C }
  - { offsetInCU: 0x905B, offset: 0x21168, size: 0x8, addend: 0x0, symName: __ZL19lodepng_set32bitIntPhj, symObjAddr: 0x1FA0, symBinAddr: 0x100009D18, symSize: 0x5C }
  - { offsetInCU: 0x9094, offset: 0x211A1, size: 0x8, addend: 0x0, symName: __Z18lodepng_chunk_nextPh, symObjAddr: 0x1FFC, symBinAddr: 0x100009D74, symSize: 0x38 }
  - { offsetInCU: 0x90D1, offset: 0x211DE, size: 0x8, addend: 0x0, symName: __Z24lodepng_chunk_next_constPKh, symObjAddr: 0x2034, symBinAddr: 0x100009DAC, symSize: 0x38 }
  - { offsetInCU: 0x910E, offset: 0x2121B, size: 0x8, addend: 0x0, symName: __Z20lodepng_chunk_appendPPhPmPKh, symObjAddr: 0x206C, symBinAddr: 0x100009DE4, symSize: 0x150 }
  - { offsetInCU: 0x91A6, offset: 0x212B3, size: 0x8, addend: 0x0, symName: __ZL15lodepng_reallocPvm, symObjAddr: 0x21BC, symBinAddr: 0x100009F34, symSize: 0x2C }
  - { offsetInCU: 0x91DF, offset: 0x212EC, size: 0x8, addend: 0x0, symName: __Z20lodepng_chunk_createPPhPmjPKcPKh, symObjAddr: 0x21E8, symBinAddr: 0x100009F60, symSize: 0x1B0 }
  - { offsetInCU: 0x9286, offset: 0x21393, size: 0x8, addend: 0x0, symName: __Z23lodepng_color_mode_initP16LodePNGColorMode, symObjAddr: 0x2398, symBinAddr: 0x10000A110, symSize: 0x58 }
  - { offsetInCU: 0x92B0, offset: 0x213BD, size: 0x8, addend: 0x0, symName: __Z26lodepng_color_mode_cleanupP16LodePNGColorMode, symObjAddr: 0x23F0, symBinAddr: 0x10000A168, symSize: 0x24 }
  - { offsetInCU: 0x92DA, offset: 0x213E7, size: 0x8, addend: 0x0, symName: __Z21lodepng_palette_clearP16LodePNGColorMode, symObjAddr: 0x2414, symBinAddr: 0x10000A18C, symSize: 0x54 }
  - { offsetInCU: 0x9304, offset: 0x21411, size: 0x8, addend: 0x0, symName: __Z23lodepng_color_mode_copyP16LodePNGColorModePKS_, symObjAddr: 0x2468, symBinAddr: 0x10000A1E0, symSize: 0x10C }
  - { offsetInCU: 0x9350, offset: 0x2145D, size: 0x8, addend: 0x0, symName: __Z19lodepng_palette_addP16LodePNGColorModehhhh, symObjAddr: 0x2574, symBinAddr: 0x10000A2EC, symSize: 0x13C }
  - { offsetInCU: 0x93C9, offset: 0x214D6, size: 0x8, addend: 0x0, symName: __Z15lodepng_get_bppPK16LodePNGColorMode, symObjAddr: 0x26B0, symBinAddr: 0x10000A428, symSize: 0x30 }
  - { offsetInCU: 0x93F8, offset: 0x21505, size: 0x8, addend: 0x0, symName: __ZL19lodepng_get_bpp_lct16LodePNGColorTypej, symObjAddr: 0x26E0, symBinAddr: 0x10000A458, symSize: 0x30 }
  - { offsetInCU: 0x9435, offset: 0x21542, size: 0x8, addend: 0x0, symName: __Z20lodepng_get_channelsPK16LodePNGColorMode, symObjAddr: 0x2710, symBinAddr: 0x10000A488, symSize: 0x28 }
  - { offsetInCU: 0x9464, offset: 0x21571, size: 0x8, addend: 0x0, symName: __ZL19getNumColorChannels16LodePNGColorType, symObjAddr: 0x2738, symBinAddr: 0x10000A4B0, symSize: 0x8C }
  - { offsetInCU: 0x9492, offset: 0x2159F, size: 0x8, addend: 0x0, symName: __Z25lodepng_is_greyscale_typePK16LodePNGColorMode, symObjAddr: 0x27E0, symBinAddr: 0x10000A558, symSize: 0x50 }
  - { offsetInCU: 0x94C0, offset: 0x215CD, size: 0x8, addend: 0x0, symName: __Z21lodepng_is_alpha_typePK16LodePNGColorMode, symObjAddr: 0x2830, symBinAddr: 0x10000A5A8, symSize: 0x24 }
  - { offsetInCU: 0x94EE, offset: 0x215FB, size: 0x8, addend: 0x0, symName: __Z23lodepng_is_palette_typePK16LodePNGColorMode, symObjAddr: 0x2854, symBinAddr: 0x10000A5CC, symSize: 0x24 }
  - { offsetInCU: 0x951C, offset: 0x21629, size: 0x8, addend: 0x0, symName: __Z25lodepng_has_palette_alphaPK16LodePNGColorMode, symObjAddr: 0x2878, symBinAddr: 0x10000A5F0, symSize: 0x88 }
  - { offsetInCU: 0x9559, offset: 0x21666, size: 0x8, addend: 0x0, symName: __Z22lodepng_can_have_alphaPK16LodePNGColorMode, symObjAddr: 0x2900, symBinAddr: 0x10000A678, symSize: 0x7C }
  - { offsetInCU: 0x9587, offset: 0x21694, size: 0x8, addend: 0x0, symName: __Z24lodepng_get_raw_size_lctjj16LodePNGColorTypej, symObjAddr: 0x297C, symBinAddr: 0x10000A6F4, symSize: 0x7C }
  - { offsetInCU: 0x9600, offset: 0x2170D, size: 0x8, addend: 0x0, symName: __Z20lodepng_get_raw_sizejjPK16LodePNGColorMode, symObjAddr: 0x29F8, symBinAddr: 0x10000A770, symSize: 0x40 }
  - { offsetInCU: 0x964C, offset: 0x21759, size: 0x8, addend: 0x0, symName: __Z18lodepng_clear_textP11LodePNGInfo, symObjAddr: 0x2A38, symBinAddr: 0x10000A7B0, symSize: 0x24 }
  - { offsetInCU: 0x9677, offset: 0x21784, size: 0x8, addend: 0x0, symName: __ZL19LodePNGText_cleanupP11LodePNGInfo, symObjAddr: 0x2A5C, symBinAddr: 0x10000A7D4, symSize: 0x94 }
  - { offsetInCU: 0x96B0, offset: 0x217BD, size: 0x8, addend: 0x0, symName: __Z16lodepng_add_textP11LodePNGInfoPKcS2_, symObjAddr: 0x2AF0, symBinAddr: 0x10000A868, symSize: 0x160 }
  - { offsetInCU: 0x971B, offset: 0x21828, size: 0x8, addend: 0x0, symName: __ZL11string_initPPc, symObjAddr: 0x2C50, symBinAddr: 0x10000A9C8, symSize: 0x30 }
  - { offsetInCU: 0x9746, offset: 0x21853, size: 0x8, addend: 0x0, symName: __ZL10string_setPPcPKc, symObjAddr: 0x2C80, symBinAddr: 0x10000A9F8, symSize: 0xA4 }
  - { offsetInCU: 0x979D, offset: 0x218AA, size: 0x8, addend: 0x0, symName: __Z19lodepng_clear_itextP11LodePNGInfo, symObjAddr: 0x2D24, symBinAddr: 0x10000AA9C, symSize: 0x24 }
  - { offsetInCU: 0x97C8, offset: 0x218D5, size: 0x8, addend: 0x0, symName: __ZL20LodePNGIText_cleanupP11LodePNGInfo, symObjAddr: 0x2D48, symBinAddr: 0x10000AAC0, symSize: 0xD4 }
  - { offsetInCU: 0x9801, offset: 0x2190E, size: 0x8, addend: 0x0, symName: __Z17lodepng_add_itextP11LodePNGInfoPKcS2_S2_S2_, symObjAddr: 0x2E1C, symBinAddr: 0x10000AB94, symSize: 0x278 }
  - { offsetInCU: 0x98A7, offset: 0x219B4, size: 0x8, addend: 0x0, symName: __Z17lodepng_info_initP11LodePNGInfo, symObjAddr: 0x3094, symBinAddr: 0x10000AE0C, symSize: 0x88 }
  - { offsetInCU: 0x98D2, offset: 0x219DF, size: 0x8, addend: 0x0, symName: __ZL16LodePNGText_initP11LodePNGInfo, symObjAddr: 0x311C, symBinAddr: 0x10000AE94, symSize: 0x28 }
  - { offsetInCU: 0x98FD, offset: 0x21A0A, size: 0x8, addend: 0x0, symName: __ZL17LodePNGIText_initP11LodePNGInfo, symObjAddr: 0x3144, symBinAddr: 0x10000AEBC, symSize: 0x38 }
  - { offsetInCU: 0x9928, offset: 0x21A35, size: 0x8, addend: 0x0, symName: __ZL25LodePNGUnknownChunks_initP11LodePNGInfo, symObjAddr: 0x317C, symBinAddr: 0x10000AEF4, symSize: 0xA0 }
  - { offsetInCU: 0x9961, offset: 0x21A6E, size: 0x8, addend: 0x0, symName: __Z20lodepng_info_cleanupP11LodePNGInfo, symObjAddr: 0x321C, symBinAddr: 0x10000AF94, symSize: 0x40 }
  - { offsetInCU: 0x998C, offset: 0x21A99, size: 0x8, addend: 0x0, symName: __ZL28LodePNGUnknownChunks_cleanupP11LodePNGInfo, symObjAddr: 0x325C, symBinAddr: 0x10000AFD4, symSize: 0x60 }
  - { offsetInCU: 0x99C5, offset: 0x21AD2, size: 0x8, addend: 0x0, symName: __Z17lodepng_info_copyP11LodePNGInfoPKS_, symObjAddr: 0x32BC, symBinAddr: 0x10000B034, symSize: 0x120 }
  - { offsetInCU: 0x9A77, offset: 0x21B84, size: 0x8, addend: 0x0, symName: __ZL16LodePNGText_copyP11LodePNGInfoPKS_, symObjAddr: 0x33DC, symBinAddr: 0x10000B154, symSize: 0xCC }
  - { offsetInCU: 0x9AE1, offset: 0x21BEE, size: 0x8, addend: 0x0, symName: __ZL17LodePNGIText_copyP11LodePNGInfoPKS_, symObjAddr: 0x34A8, symBinAddr: 0x10000B220, symSize: 0xFC }
  - { offsetInCU: 0x9B4B, offset: 0x21C58, size: 0x8, addend: 0x0, symName: __ZL25LodePNGUnknownChunks_copyP11LodePNGInfoPKS_, symObjAddr: 0x35A4, symBinAddr: 0x10000B31C, symSize: 0x16C }
  - { offsetInCU: 0x9BB4, offset: 0x21CC1, size: 0x8, addend: 0x0, symName: __Z17lodepng_info_swapP11LodePNGInfoS0_, symObjAddr: 0x3710, symBinAddr: 0x10000B488, symSize: 0x60 }
  - { offsetInCU: 0x9BFC, offset: 0x21D09, size: 0x8, addend: 0x0, symName: __Z15lodepng_convertPhPKhPK16LodePNGColorModeS4_jj, symObjAddr: 0x3770, symBinAddr: 0x10000B4E8, symSize: 0x56C }
  - { offsetInCU: 0x9DDE, offset: 0x21EEB, size: 0x8, addend: 0x0, symName: __ZL24lodepng_color_mode_equalPK16LodePNGColorModeS1_, symObjAddr: 0x3CDC, symBinAddr: 0x10000BA54, symSize: 0x1C8 }
  - { offsetInCU: 0x9E2B, offset: 0x21F38, size: 0x8, addend: 0x0, symName: __ZL15color_tree_initP9ColorTree, symObjAddr: 0x3EA4, symBinAddr: 0x10000BC1C, symSize: 0x5C }
  - { offsetInCU: 0x9E65, offset: 0x21F72, size: 0x8, addend: 0x0, symName: __ZL14color_tree_addP9ColorTreehhhhj, symObjAddr: 0x3F00, symBinAddr: 0x10000BC78, symSize: 0x130 }
  - { offsetInCU: 0x9F07, offset: 0x22014, size: 0x8, addend: 0x0, symName: __ZL19getPixelColorRGBA16PtS_S_S_PKhmPK16LodePNGColorMode, symObjAddr: 0x4030, symBinAddr: 0x10000BDA8, symSize: 0x4AC }
  - { offsetInCU: 0x9F8C, offset: 0x22099, size: 0x8, addend: 0x0, symName: __ZL13rgba16ToPixelPhmPK16LodePNGColorModetttt, symObjAddr: 0x44DC, symBinAddr: 0x10000C254, symSize: 0x2E8 }
  - { offsetInCU: 0xA04B, offset: 0x22158, size: 0x8, addend: 0x0, symName: __ZL19getPixelColorsRGBA8PhmjPKhPK16LodePNGColorMode, symObjAddr: 0x47C4, symBinAddr: 0x10000C53C, symSize: 0xCE4 }
  - { offsetInCU: 0xA145, offset: 0x22252, size: 0x8, addend: 0x0, symName: __ZL18getPixelColorRGBA8PhS_S_S_PKhmPK16LodePNGColorMode, symObjAddr: 0x54A8, symBinAddr: 0x10000D220, symSize: 0x8B8 }
  - { offsetInCU: 0xA23F, offset: 0x2234C, size: 0x8, addend: 0x0, symName: __ZL12rgba8ToPixelPhmPK16LodePNGColorModeP9ColorTreehhhh, symObjAddr: 0x5D60, symBinAddr: 0x10000DAD8, symSize: 0x59C }
  - { offsetInCU: 0xA32E, offset: 0x2243B, size: 0x8, addend: 0x0, symName: __ZL18color_tree_cleanupP9ColorTree, symObjAddr: 0x62FC, symBinAddr: 0x10000E074, symSize: 0x8C }
  - { offsetInCU: 0xA368, offset: 0x22475, size: 0x8, addend: 0x0, symName: __Z26lodepng_color_profile_initP19LodePNGColorProfile, symObjAddr: 0x6388, symBinAddr: 0x10000E100, symSize: 0x54 }
  - { offsetInCU: 0xA392, offset: 0x2249F, size: 0x8, addend: 0x0, symName: __Z25lodepng_get_color_profileP19LodePNGColorProfilePKhjjPK16LodePNGColorMode, symObjAddr: 0x63DC, symBinAddr: 0x10000E154, symSize: 0xE40 }
  - { offsetInCU: 0xA615, offset: 0x22722, size: 0x8, addend: 0x0, symName: __ZL20getValueRequiredBitsh, symObjAddr: 0x721C, symBinAddr: 0x10000EF94, symSize: 0xB0 }
  - { offsetInCU: 0xA644, offset: 0x22751, size: 0x8, addend: 0x0, symName: __ZL14color_tree_hasP9ColorTreehhhh, symObjAddr: 0x72CC, symBinAddr: 0x10000F044, symSize: 0x50 }
  - { offsetInCU: 0xA6AE, offset: 0x227BB, size: 0x8, addend: 0x0, symName: __Z25lodepng_auto_choose_colorP16LodePNGColorModePKhjjPKS_, symObjAddr: 0x731C, symBinAddr: 0x10000F094, symSize: 0x4A0 }
  - { offsetInCU: 0xA7C5, offset: 0x228D2, size: 0x8, addend: 0x0, symName: __Z15lodepng_inspectPjS_P12LodePNGStatePKhm, symObjAddr: 0x77BC, symBinAddr: 0x10000F534, symSize: 0x3C4 }
  - { offsetInCU: 0xA86B, offset: 0x22978, size: 0x8, addend: 0x0, symName: __ZL18checkColorValidity16LodePNGColorTypej, symObjAddr: 0x7B80, symBinAddr: 0x10000F8F8, symSize: 0x1DC }
  - { offsetInCU: 0xA8A8, offset: 0x229B5, size: 0x8, addend: 0x0, symName: __Z14lodepng_decodePPhPjS1_P12LodePNGStatePKhm, symObjAddr: 0x7D78, symBinAddr: 0x10000FAF0, symSize: 0x230 }
  - { offsetInCU: 0xA94E, offset: 0x22A5B, size: 0x8, addend: 0x0, symName: __ZL13decodeGenericPPhPjS1_P12LodePNGStatePKhm, symObjAddr: 0x7FA8, symBinAddr: 0x10000FD20, symSize: 0xC24 }
  - { offsetInCU: 0xAAC3, offset: 0x22BD0, size: 0x8, addend: 0x0, symName: __Z21lodepng_decode_memoryPPhPjS1_PKhm16LodePNGColorTypej, symObjAddr: 0x8BCC, symBinAddr: 0x100010944, symSize: 0xDC }
  - { offsetInCU: 0xAF52, offset: 0x2305F, size: 0x8, addend: 0x0, symName: __ZN12LodePNGStateC1Ev, symObjAddr: 0x8CA8, symBinAddr: 0x100010A20, symSize: 0x2C }
  - { offsetInCU: 0xAF7D, offset: 0x2308A, size: 0x8, addend: 0x0, symName: __Z18lodepng_state_initP12LodePNGState, symObjAddr: 0x8CD4, symBinAddr: 0x100010A4C, symSize: 0x58 }
  - { offsetInCU: 0xAFA7, offset: 0x230B4, size: 0x8, addend: 0x0, symName: __Z21lodepng_state_cleanupP12LodePNGState, symObjAddr: 0x8D2C, symBinAddr: 0x100010AA4, symSize: 0x34 }
  - { offsetInCU: 0xAFD2, offset: 0x230DF, size: 0x8, addend: 0x0, symName: __ZN12LodePNGStateD1Ev, symObjAddr: 0x8D60, symBinAddr: 0x100010AD8, symSize: 0x2C }
  - { offsetInCU: 0xAFFA, offset: 0x23107, size: 0x8, addend: 0x0, symName: __Z16lodepng_decode32PPhPjS1_PKhm, symObjAddr: 0x8D8C, symBinAddr: 0x100010B04, symSize: 0x4C }
  - { offsetInCU: 0xB064, offset: 0x23171, size: 0x8, addend: 0x0, symName: __Z16lodepng_decode24PPhPjS1_PKhm, symObjAddr: 0x8DD8, symBinAddr: 0x100010B50, symSize: 0x4C }
  - { offsetInCU: 0xB0CE, offset: 0x231DB, size: 0x8, addend: 0x0, symName: __Z19lodepng_decode_filePPhPjS1_PKc16LodePNGColorTypej, symObjAddr: 0x8E24, symBinAddr: 0x100010B9C, symSize: 0x90 }
  - { offsetInCU: 0xB174, offset: 0x23281, size: 0x8, addend: 0x0, symName: __Z21lodepng_decode32_filePPhPjS1_PKc, symObjAddr: 0x8EB4, symBinAddr: 0x100010C2C, symSize: 0x44 }
  - { offsetInCU: 0xB1CF, offset: 0x232DC, size: 0x8, addend: 0x0, symName: __Z21lodepng_decode24_filePPhPjS1_PKc, symObjAddr: 0x8EF8, symBinAddr: 0x100010C70, symSize: 0x44 }
  - { offsetInCU: 0xB22A, offset: 0x23337, size: 0x8, addend: 0x0, symName: __Z29lodepng_decoder_settings_initP22LodePNGDecoderSettings, symObjAddr: 0x8F3C, symBinAddr: 0x100010CB4, symSize: 0x58 }
  - { offsetInCU: 0xB254, offset: 0x23361, size: 0x8, addend: 0x0, symName: __Z29lodepng_encoder_settings_initP22LodePNGEncoderSettings, symObjAddr: 0x8F94, symBinAddr: 0x100010D0C, symSize: 0x60 }
  - { offsetInCU: 0xB27E, offset: 0x2338B, size: 0x8, addend: 0x0, symName: __Z18lodepng_state_copyP12LodePNGStatePKS_, symObjAddr: 0x8FF4, symBinAddr: 0x100010D6C, symSize: 0xBC }
  - { offsetInCU: 0xB2C7, offset: 0x233D4, size: 0x8, addend: 0x0, symName: __ZN12LodePNGStateaSERKS_, symObjAddr: 0x90B0, symBinAddr: 0x100010E28, symSize: 0x40 }
  - { offsetInCU: 0xB2F7, offset: 0x23404, size: 0x8, addend: 0x0, symName: __Z14lodepng_encodePPhPmPKhjjP12LodePNGState, symObjAddr: 0x90F0, symBinAddr: 0x100010E68, symSize: 0xA38 }
  - { offsetInCU: 0xB417, offset: 0x23524, size: 0x8, addend: 0x0, symName: __ZL19preProcessScanlinesPPhPmPKhjjPK11LodePNGInfoPK22LodePNGEncoderSettings, symObjAddr: 0x9B28, symBinAddr: 0x1000118A0, symSize: 0x550 }
  - { offsetInCU: 0xB588, offset: 0x23695, size: 0x8, addend: 0x0, symName: __ZL13ucvector_initP8ucvector, symObjAddr: 0xA078, symBinAddr: 0x100011DF0, symSize: 0x28 }
  - { offsetInCU: 0xB5B1, offset: 0x236BE, size: 0x8, addend: 0x0, symName: __ZL14writeSignatureP8ucvector, symObjAddr: 0xA0A0, symBinAddr: 0x100011E18, symSize: 0x80 }
  - { offsetInCU: 0xB5DC, offset: 0x236E9, size: 0x8, addend: 0x0, symName: __ZL13addChunk_IHDRP8ucvectorjj16LodePNGColorTypejj, symObjAddr: 0xA120, symBinAddr: 0x100011E98, symSize: 0xD4 }
  - { offsetInCU: 0xB674, offset: 0x23781, size: 0x8, addend: 0x0, symName: __ZL16addUnknownChunksP8ucvectorPhm, symObjAddr: 0xA1F4, symBinAddr: 0x100011F6C, symSize: 0xB4 }
  - { offsetInCU: 0xB6ED, offset: 0x237FA, size: 0x8, addend: 0x0, symName: __ZL13addChunk_PLTEP8ucvectorPK16LodePNGColorMode, symObjAddr: 0xA2A8, symBinAddr: 0x100012020, symSize: 0xD8 }
  - { offsetInCU: 0xB758, offset: 0x23865, size: 0x8, addend: 0x0, symName: __ZL22getPaletteTranslucencyPKhm, symObjAddr: 0xA380, symBinAddr: 0x1000120F8, symSize: 0x1D8 }
  - { offsetInCU: 0xB7E1, offset: 0x238EE, size: 0x8, addend: 0x0, symName: __ZL13addChunk_tRNSP8ucvectorPK16LodePNGColorMode, symObjAddr: 0xA558, symBinAddr: 0x1000122D0, symSize: 0x28C }
  - { offsetInCU: 0xB869, offset: 0x23976, size: 0x8, addend: 0x0, symName: __ZL13addChunk_bKGDP8ucvectorPK11LodePNGInfo, symObjAddr: 0xA7E4, symBinAddr: 0x10001255C, symSize: 0x1B8 }
  - { offsetInCU: 0xB8C5, offset: 0x239D2, size: 0x8, addend: 0x0, symName: __ZL13addChunk_pHYsP8ucvectorPK11LodePNGInfo, symObjAddr: 0xA99C, symBinAddr: 0x100012714, symSize: 0x90 }
  - { offsetInCU: 0xB921, offset: 0x23A2E, size: 0x8, addend: 0x0, symName: __ZL13addChunk_IDATP8ucvectorPKhmP23LodePNGCompressSettings, symObjAddr: 0xAA2C, symBinAddr: 0x1000127A4, symSize: 0x98 }
  - { offsetInCU: 0xB99B, offset: 0x23AA8, size: 0x8, addend: 0x0, symName: __ZL13addChunk_tIMEP8ucvectorPK11LodePNGTime, symObjAddr: 0xAAC4, symBinAddr: 0x10001283C, symSize: 0xF8 }
  - { offsetInCU: 0xB9F7, offset: 0x23B04, size: 0x8, addend: 0x0, symName: __ZL13addChunk_zTXtP8ucvectorPKcS2_P23LodePNGCompressSettings, symObjAddr: 0xABBC, symBinAddr: 0x100012934, symSize: 0x1A0 }
  - { offsetInCU: 0xBA9E, offset: 0x23BAB, size: 0x8, addend: 0x0, symName: __ZL13addChunk_tEXtP8ucvectorPKcS2_, symObjAddr: 0xAD5C, symBinAddr: 0x100012AD4, symSize: 0x148 }
  - { offsetInCU: 0xBB18, offset: 0x23C25, size: 0x8, addend: 0x0, symName: __ZL13addChunk_iTXtP8ucvectorjPKcS2_S2_S2_P23LodePNGCompressSettings, symObjAddr: 0xAEA4, symBinAddr: 0x100012C1C, symSize: 0x308 }
  - { offsetInCU: 0xBBFC, offset: 0x23D09, size: 0x8, addend: 0x0, symName: __ZL13addChunk_IENDP8ucvector, symObjAddr: 0xB1AC, symBinAddr: 0x100012F24, symSize: 0x40 }
  - { offsetInCU: 0xBC39, offset: 0x23D46, size: 0x8, addend: 0x0, symName: __Z21lodepng_encode_memoryPPhPmPKhjj16LodePNGColorTypej, symObjAddr: 0xB1EC, symBinAddr: 0x100012F64, symSize: 0xE8 }
  - { offsetInCU: 0xBCDF, offset: 0x23DEC, size: 0x8, addend: 0x0, symName: __Z16lodepng_encode32PPhPmPKhjj, symObjAddr: 0xB2D4, symBinAddr: 0x10001304C, symSize: 0x4C }
  - { offsetInCU: 0xBD49, offset: 0x23E56, size: 0x8, addend: 0x0, symName: __Z16lodepng_encode24PPhPmPKhjj, symObjAddr: 0xB320, symBinAddr: 0x100013098, symSize: 0x4C }
  - { offsetInCU: 0xBDB3, offset: 0x23EC0, size: 0x8, addend: 0x0, symName: __Z19lodepng_encode_filePKcPKhjj16LodePNGColorTypej, symObjAddr: 0xB36C, symBinAddr: 0x1000130E4, symSize: 0x8C }
  - { offsetInCU: 0xBE59, offset: 0x23F66, size: 0x8, addend: 0x0, symName: __Z21lodepng_encode32_filePKcPKhjj, symObjAddr: 0xB3F8, symBinAddr: 0x100013170, symSize: 0x44 }
  - { offsetInCU: 0xBEB4, offset: 0x23FC1, size: 0x8, addend: 0x0, symName: __Z21lodepng_encode24_filePKcPKhjj, symObjAddr: 0xB43C, symBinAddr: 0x1000131B4, symSize: 0x44 }
  - { offsetInCU: 0xBF0F, offset: 0x2401C, size: 0x8, addend: 0x0, symName: __Z18lodepng_error_textj, symObjAddr: 0xB480, symBinAddr: 0x1000131F8, symSize: 0x578 }
  - { offsetInCU: 0xBF42, offset: 0x2404F, size: 0x8, addend: 0x0, symName: __ZN7lodepng9load_fileERNSt3__16vectorIhNS0_9allocatorIhEEEERKNS0_12basic_stringIcNS0_11char_traitsIcEENS2_IcEEEE, symObjAddr: 0xBB78, symBinAddr: 0x1000138F0, symSize: 0xC4 }
  - { offsetInCU: 0xBF8E, offset: 0x2409B, size: 0x8, addend: 0x0, symName: __ZN7lodepng9save_fileERKNSt3__16vectorIhNS0_9allocatorIhEEEERKNS0_12basic_stringIcNS0_11char_traitsIcEENS2_IcEEEE, symObjAddr: 0xBD18, symBinAddr: 0x100013A90, symSize: 0x7C }
  - { offsetInCU: 0xBFCB, offset: 0x240D8, size: 0x8, addend: 0x0, symName: __ZN7lodepng10decompressERNSt3__16vectorIhNS0_9allocatorIhEEEEPKhmRK25LodePNGDecompressSettings, symObjAddr: 0xBE00, symBinAddr: 0x100013B78, symSize: 0xB4 }
  - { offsetInCU: 0xC053, offset: 0x24160, size: 0x8, addend: 0x0, symName: __ZN7lodepng10decompressERNSt3__16vectorIhNS0_9allocatorIhEEEERKS4_RK25LodePNGDecompressSettings, symObjAddr: 0xC024, symBinAddr: 0x100013D9C, symSize: 0x80 }
  - { offsetInCU: 0xC09F, offset: 0x241AC, size: 0x8, addend: 0x0, symName: __ZN7lodepng8compressERNSt3__16vectorIhNS0_9allocatorIhEEEEPKhmRK23LodePNGCompressSettings, symObjAddr: 0xC0A4, symBinAddr: 0x100013E1C, symSize: 0xB4 }
  - { offsetInCU: 0xC127, offset: 0x24234, size: 0x8, addend: 0x0, symName: __ZN7lodepng8compressERNSt3__16vectorIhNS0_9allocatorIhEEEERKS4_RK23LodePNGCompressSettings, symObjAddr: 0xC1E8, symBinAddr: 0x100013F60, symSize: 0x80 }
  - { offsetInCU: 0xC1E2, offset: 0x242EF, size: 0x8, addend: 0x0, symName: __ZN7lodepng6decodeERNSt3__16vectorIhNS0_9allocatorIhEEEERjS6_PKhm16LodePNGColorTypej, symObjAddr: 0xC4E4, symBinAddr: 0x100014250, symSize: 0x15C }
  - { offsetInCU: 0xC2B1, offset: 0x243BE, size: 0x8, addend: 0x0, symName: __ZN7lodepng6decodeERNSt3__16vectorIhNS0_9allocatorIhEEEERjS6_RKS4_16LodePNGColorTypej, symObjAddr: 0xC640, symBinAddr: 0x1000143AC, symSize: 0xAC }
  - { offsetInCU: 0xC32A, offset: 0x24437, size: 0x8, addend: 0x0, symName: __ZN7lodepng6decodeERNSt3__16vectorIhNS0_9allocatorIhEEEERjS6_RNS_5StateEPKhm, symObjAddr: 0xC6EC, symBinAddr: 0x100014458, symSize: 0xF0 }
  - { offsetInCU: 0xC3DE, offset: 0x244EB, size: 0x8, addend: 0x0, symName: __ZN7lodepng6decodeERNSt3__16vectorIhNS0_9allocatorIhEEEERjS6_RNS_5StateERKS4_, symObjAddr: 0xC7DC, symBinAddr: 0x100014548, symSize: 0xA8 }
  - { offsetInCU: 0xC448, offset: 0x24555, size: 0x8, addend: 0x0, symName: __ZN7lodepng6decodeERNSt3__16vectorIhNS0_9allocatorIhEEEERjS6_RKNS0_12basic_stringIcNS0_11char_traitsIcEENS2_IcEEEE16LodePNGColorTypej, symObjAddr: 0xC884, symBinAddr: 0x1000145F0, symSize: 0xE4 }
  - { offsetInCU: 0xC4DF, offset: 0x245EC, size: 0x8, addend: 0x0, symName: __ZN7lodepng6encodeERNSt3__16vectorIhNS0_9allocatorIhEEEEPKhjj16LodePNGColorTypej, symObjAddr: 0xC9C0, symBinAddr: 0x10001472C, symSize: 0xBC }
  - { offsetInCU: 0xC585, offset: 0x24692, size: 0x8, addend: 0x0, symName: __ZN7lodepng6encodeERNSt3__16vectorIhNS0_9allocatorIhEEEERKS4_jj16LodePNGColorTypej, symObjAddr: 0xCA7C, symBinAddr: 0x1000147E8, symSize: 0xD4 }
  - { offsetInCU: 0xC5FE, offset: 0x2470B, size: 0x8, addend: 0x0, symName: __ZN7lodepng6encodeERNSt3__16vectorIhNS0_9allocatorIhEEEEPKhjjRNS_5StateE, symObjAddr: 0xCB50, symBinAddr: 0x1000148BC, symSize: 0xB4 }
  - { offsetInCU: 0xC695, offset: 0x247A2, size: 0x8, addend: 0x0, symName: __ZN7lodepng6encodeERNSt3__16vectorIhNS0_9allocatorIhEEEERKS4_jjRNS_5StateE, symObjAddr: 0xCC04, symBinAddr: 0x100014970, symSize: 0xCC }
  - { offsetInCU: 0xC6FF, offset: 0x2480C, size: 0x8, addend: 0x0, symName: __ZN7lodepng6encodeERKNSt3__112basic_stringIcNS0_11char_traitsIcEENS0_9allocatorIcEEEEPKhjj16LodePNGColorTypej, symObjAddr: 0xCCD0, symBinAddr: 0x100014A3C, symSize: 0xD0 }
  - { offsetInCU: 0xC796, offset: 0x248A3, size: 0x8, addend: 0x0, symName: __ZN7lodepng6encodeERKNSt3__112basic_stringIcNS0_11char_traitsIcEENS0_9allocatorIcEEEERKNS0_6vectorIhNS4_IhEEEEjj16LodePNGColorTypej, symObjAddr: 0xCDA0, symBinAddr: 0x100014B0C, symSize: 0xD4 }
  - { offsetInCU: 0xC811, offset: 0x2491E, size: 0x8, addend: 0x0, symName: __ZNKSt3__112basic_stringIcNS_11char_traitsIcEENS_9allocatorIcEEE5c_strB8ue170006Ev, symObjAddr: 0xBC3C, symBinAddr: 0x1000139B4, symSize: 0x24 }
  - { offsetInCU: 0xC834, offset: 0x24941, size: 0x8, addend: 0x0, symName: __ZNSt3__16vectorIhNS_9allocatorIhEEE6resizeEm, symObjAddr: 0xBC60, symBinAddr: 0x1000139D8, symSize: 0x94 }
  - { offsetInCU: 0xC87A, offset: 0x24987, size: 0x8, addend: 0x0, symName: __ZNSt3__16vectorIhNS_9allocatorIhEEEixB8ue170006Em, symObjAddr: 0xBCF4, symBinAddr: 0x100013A6C, symSize: 0x24 }
  - { offsetInCU: 0xC8B0, offset: 0x249BD, size: 0x8, addend: 0x0, symName: __ZNKSt3__16vectorIhNS_9allocatorIhEEE5emptyB8ue170006Ev, symObjAddr: 0xBD94, symBinAddr: 0x100013B0C, symSize: 0x28 }
  - { offsetInCU: 0xC8D4, offset: 0x249E1, size: 0x8, addend: 0x0, symName: __ZNKSt3__16vectorIhNS_9allocatorIhEEEixB8ue170006Em, symObjAddr: 0xBDBC, symBinAddr: 0x100013B34, symSize: 0x24 }
  - { offsetInCU: 0xC90A, offset: 0x24A17, size: 0x8, addend: 0x0, symName: __ZNKSt3__16vectorIhNS_9allocatorIhEEE4sizeB8ue170006Ev, symObjAddr: 0xBDE0, symBinAddr: 0x100013B58, symSize: 0x20 }
  - { offsetInCU: 0xC92E, offset: 0x24A3B, size: 0x8, addend: 0x0, symName: __ZL15zlib_decompressPPhPmPKhmPK25LodePNGDecompressSettings, symObjAddr: 0xBEB4, symBinAddr: 0x100013C2C, symSize: 0x90 }
  - { offsetInCU: 0xC998, offset: 0x24AA5, size: 0x8, addend: 0x0, symName: __ZNSt3__16vectorIhNS_9allocatorIhEEE6insertIPhLi0EEENS_11__wrap_iterIS5_EENS6_IPKhEET_SB_, symObjAddr: 0xBF44, symBinAddr: 0x100013CBC, symSize: 0x74 }
  - { offsetInCU: 0xC9FB, offset: 0x24B08, size: 0x8, addend: 0x0, symName: __ZNSt3__16vectorIhNS_9allocatorIhEEE3endB8ue170006Ev, symObjAddr: 0xBFB8, symBinAddr: 0x100013D30, symSize: 0x30 }
  - { offsetInCU: 0xCA2D, offset: 0x24B3A, size: 0x8, addend: 0x0, symName: __ZNSt3__111__wrap_iterIPKhEC1B8ue170006IPhEERKNS0_IT_EEPNS_9enable_ifIXsr14is_convertibleIS6_S2_EE5valueEvE4typeE, symObjAddr: 0xBFE8, symBinAddr: 0x100013D60, symSize: 0x3C }
  - { offsetInCU: 0xCA78, offset: 0x24B85, size: 0x8, addend: 0x0, symName: __ZL13zlib_compressPPhPmPKhmPK23LodePNGCompressSettings, symObjAddr: 0xC158, symBinAddr: 0x100013ED0, symSize: 0x90 }
  - { offsetInCU: 0xCB03, offset: 0x24C10, size: 0x8, addend: 0x0, symName: __ZN7lodepng5StateC2Ev, symObjAddr: 0xC268, symBinAddr: 0x100013FE0, symSize: 0x74 }
  - { offsetInCU: 0xCB2F, offset: 0x24C3C, size: 0x8, addend: 0x0, symName: __ZN12LodePNGStateC2Ev, symObjAddr: 0xC2DC, symBinAddr: 0x100014054, symSize: 0x24 }
  - { offsetInCU: 0xCB5B, offset: 0x24C68, size: 0x8, addend: 0x0, symName: __ZN12LodePNGStateD2Ev, symObjAddr: 0xC300, symBinAddr: 0x100014078, symSize: 0x14 }
  - { offsetInCU: 0xCB84, offset: 0x24C91, size: 0x8, addend: 0x0, symName: __ZN7lodepng5StateC1Ev, symObjAddr: 0xC314, symBinAddr: 0x10001408C, symSize: 0x2C }
  - { offsetInCU: 0xCBB0, offset: 0x24CBD, size: 0x8, addend: 0x0, symName: __ZN7lodepng5StateC2ERKS0_, symObjAddr: 0xC340, symBinAddr: 0x1000140B8, symSize: 0x88 }
  - { offsetInCU: 0xCBEB, offset: 0x24CF8, size: 0x8, addend: 0x0, symName: __ZN7lodepng5StateC1ERKS0_, symObjAddr: 0xC3C8, symBinAddr: 0x100014140, symSize: 0x34 }
  - { offsetInCU: 0xCC26, offset: 0x24D33, size: 0x8, addend: 0x0, symName: __ZN7lodepng5StateD2Ev, symObjAddr: 0xC3FC, symBinAddr: 0x100014174, symSize: 0x4C }
  - { offsetInCU: 0xCC52, offset: 0x24D5F, size: 0x8, addend: 0x0, symName: __ZN7lodepng5StateD1Ev, symObjAddr: 0xC454, symBinAddr: 0x1000141C0, symSize: 0x2C }
  - { offsetInCU: 0xCC7E, offset: 0x24D8B, size: 0x8, addend: 0x0, symName: __ZN7lodepng5StateD0Ev, symObjAddr: 0xC480, symBinAddr: 0x1000141EC, symSize: 0x30 }
  - { offsetInCU: 0xCCAA, offset: 0x24DB7, size: 0x8, addend: 0x0, symName: __ZN7lodepng5StateaSERKS0_, symObjAddr: 0xC4B0, symBinAddr: 0x10001421C, symSize: 0x34 }
  - { offsetInCU: 0xCCE1, offset: 0x24DEE, size: 0x8, addend: 0x0, symName: __ZNSt3__16vectorIhNS_9allocatorIhEEEC1B8ue170006Ev, symObjAddr: 0xC968, symBinAddr: 0x1000146D4, symSize: 0x2C }
  - { offsetInCU: 0xCD0A, offset: 0x24E17, size: 0x8, addend: 0x0, symName: __ZNSt3__16vectorIhNS_9allocatorIhEEED1B8ue170006Ev, symObjAddr: 0xC994, symBinAddr: 0x100014700, symSize: 0x2C }
  - { offsetInCU: 0xCD33, offset: 0x24E40, size: 0x8, addend: 0x0, symName: __ZL17readBitFromStreamPmPKh, symObjAddr: 0xCE74, symBinAddr: 0x100014BE0, symSize: 0x54 }
  - { offsetInCU: 0xCD80, offset: 0x24E8D, size: 0x8, addend: 0x0, symName: __ZL20inflateNoCompressionP8ucvectorPKhPmS3_m, symObjAddr: 0xCEC8, symBinAddr: 0x100014C34, symSize: 0x220 }
  - { offsetInCU: 0xCE36, offset: 0x24F43, size: 0x8, addend: 0x0, symName: __ZL19inflateHuffmanBlockP8ucvectorPKhPmS3_mj, symObjAddr: 0xD0E8, symBinAddr: 0x100014E54, symSize: 0x4A0 }
  - { offsetInCU: 0xCF91, offset: 0x2509E, size: 0x8, addend: 0x0, symName: __ZL15ucvector_resizeP8ucvectorm, symObjAddr: 0xD588, symBinAddr: 0x1000152F4, symSize: 0x64 }
  - { offsetInCU: 0xCFCB, offset: 0x250D8, size: 0x8, addend: 0x0, symName: __ZL16ucvector_reserveP8ucvectorm, symObjAddr: 0xD5EC, symBinAddr: 0x100015358, symSize: 0xE8 }
  - { offsetInCU: 0xD02F, offset: 0x2513C, size: 0x8, addend: 0x0, symName: __ZL16HuffmanTree_initP11HuffmanTree, symObjAddr: 0xD6D4, symBinAddr: 0x100015440, symSize: 0x28 }
  - { offsetInCU: 0xD05A, offset: 0x25167, size: 0x8, addend: 0x0, symName: __ZL19getTreeInflateFixedP11HuffmanTreeS0_, symObjAddr: 0xD6FC, symBinAddr: 0x100015468, symSize: 0x30 }
  - { offsetInCU: 0xD094, offset: 0x251A1, size: 0x8, addend: 0x0, symName: __ZL21getTreeInflateDynamicP11HuffmanTreeS0_PKhPmm, symObjAddr: 0xD72C, symBinAddr: 0x100015498, symSize: 0x890 }
  - { offsetInCU: 0xD22D, offset: 0x2533A, size: 0x8, addend: 0x0, symName: __ZL19huffmanDecodeSymbolPKhPmPK11HuffmanTreem, symObjAddr: 0xDFBC, symBinAddr: 0x100015D28, symSize: 0x10C }
  - { offsetInCU: 0xD2A7, offset: 0x253B4, size: 0x8, addend: 0x0, symName: __ZL18readBitsFromStreamPmPKhm, symObjAddr: 0xE0C8, symBinAddr: 0x100015E34, symSize: 0xA0 }
  - { offsetInCU: 0xD312, offset: 0x2541F, size: 0x8, addend: 0x0, symName: __ZL19HuffmanTree_cleanupP11HuffmanTree, symObjAddr: 0xE168, symBinAddr: 0x100015ED4, symSize: 0x40 }
  - { offsetInCU: 0xD33D, offset: 0x2544A, size: 0x8, addend: 0x0, symName: __ZL23generateFixedLitLenTreeP11HuffmanTree, symObjAddr: 0xE1A8, symBinAddr: 0x100015F14, symSize: 0x198 }
  - { offsetInCU: 0xD399, offset: 0x254A6, size: 0x8, addend: 0x0, symName: __ZL25generateFixedDistanceTreeP11HuffmanTree, symObjAddr: 0xE340, symBinAddr: 0x1000160AC, symSize: 0xC0 }
  - { offsetInCU: 0xD3F5, offset: 0x25502, size: 0x8, addend: 0x0, symName: __ZL27HuffmanTree_makeFromLengthsP11HuffmanTreePKjmj, symObjAddr: 0xE400, symBinAddr: 0x10001616C, symSize: 0xDC }
  - { offsetInCU: 0xD460, offset: 0x2556D, size: 0x8, addend: 0x0, symName: __ZL28HuffmanTree_makeFromLengths2P11HuffmanTree, symObjAddr: 0xE4DC, symBinAddr: 0x100016248, symSize: 0x288 }
  - { offsetInCU: 0xD4DA, offset: 0x255E7, size: 0x8, addend: 0x0, symName: __ZL13uivector_initP8uivector, symObjAddr: 0xE764, symBinAddr: 0x1000164D0, symSize: 0x28 }
  - { offsetInCU: 0xD503, offset: 0x25610, size: 0x8, addend: 0x0, symName: __ZL16uivector_resizevP8uivectormj, symObjAddr: 0xE78C, symBinAddr: 0x1000164F8, symSize: 0xB0 }
  - { offsetInCU: 0xD567, offset: 0x25674, size: 0x8, addend: 0x0, symName: __ZL16uivector_cleanupPv, symObjAddr: 0xE83C, symBinAddr: 0x1000165A8, symSize: 0x40 }
  - { offsetInCU: 0xD58F, offset: 0x2569C, size: 0x8, addend: 0x0, symName: __ZL22HuffmanTree_make2DTreeP11HuffmanTree, symObjAddr: 0xE87C, symBinAddr: 0x1000165E8, symSize: 0x334 }
  - { offsetInCU: 0xD617, offset: 0x25724, size: 0x8, addend: 0x0, symName: __ZL15uivector_resizeP8uivectorm, symObjAddr: 0xEBB0, symBinAddr: 0x10001691C, symSize: 0x64 }
  - { offsetInCU: 0xD651, offset: 0x2575E, size: 0x8, addend: 0x0, symName: __ZL16uivector_reserveP8uivectorm, symObjAddr: 0xEC14, symBinAddr: 0x100016980, symSize: 0xE8 }
  - { offsetInCU: 0xD6B5, offset: 0x257C2, size: 0x8, addend: 0x0, symName: __ZL20deflateNoCompressionP8ucvectorPKhm, symObjAddr: 0xECFC, symBinAddr: 0x100016A68, symSize: 0x1D8 }
  - { offsetInCU: 0xD797, offset: 0x258A4, size: 0x8, addend: 0x0, symName: __ZL9hash_initP4Hashj, symObjAddr: 0xEED4, symBinAddr: 0x100016C40, symSize: 0x2C0 }
  - { offsetInCU: 0xD7E4, offset: 0x258F1, size: 0x8, addend: 0x0, symName: __ZL12deflateFixedP8ucvectorPmP4HashPKhmmPK23LodePNGCompressSettingsj, symObjAddr: 0xF194, symBinAddr: 0x100016F00, symSize: 0x37C }
  - { offsetInCU: 0xD8EC, offset: 0x259F9, size: 0x8, addend: 0x0, symName: __ZL14deflateDynamicP8ucvectorPmP4HashPKhmmPK23LodePNGCompressSettingsj, symObjAddr: 0xF510, symBinAddr: 0x10001727C, symSize: 0xD80 }
  - { offsetInCU: 0xDB4E, offset: 0x25C5B, size: 0x8, addend: 0x0, symName: __ZL12hash_cleanupP4Hash, symObjAddr: 0x10290, symBinAddr: 0x100017FFC, symSize: 0x64 }
  - { offsetInCU: 0xDB79, offset: 0x25C86, size: 0x8, addend: 0x0, symName: __ZL10encodeLZ77P8uivectorP4HashPKhmmjjjj, symObjAddr: 0x102F4, symBinAddr: 0x100018060, symSize: 0x99C }
  - { offsetInCU: 0xDDA8, offset: 0x25EB5, size: 0x8, addend: 0x0, symName: __ZL13writeLZ77dataPmP8ucvectorPK8uivectorPK11HuffmanTreeS7_, symObjAddr: 0x10C90, symBinAddr: 0x1000189FC, symSize: 0x1DC }
  - { offsetInCU: 0xDEB3, offset: 0x25FC0, size: 0x8, addend: 0x0, symName: __ZL16addHuffmanSymbolPmP8ucvectorjj, symObjAddr: 0x10E6C, symBinAddr: 0x100018BD8, symSize: 0x40 }
  - { offsetInCU: 0xDF0B, offset: 0x26018, size: 0x8, addend: 0x0, symName: __ZL19HuffmanTree_getCodePK11HuffmanTreej, symObjAddr: 0x10EAC, symBinAddr: 0x100018C18, symSize: 0x24 }
  - { offsetInCU: 0xDF49, offset: 0x26056, size: 0x8, addend: 0x0, symName: __ZL21HuffmanTree_getLengthPK11HuffmanTreej, symObjAddr: 0x10ED0, symBinAddr: 0x100018C3C, symSize: 0x24 }
  - { offsetInCU: 0xDF87, offset: 0x26094, size: 0x8, addend: 0x0, symName: __ZL7getHashPKhmm, symObjAddr: 0x10EF4, symBinAddr: 0x100018C60, symSize: 0x134 }
  - { offsetInCU: 0xE00F, offset: 0x2611C, size: 0x8, addend: 0x0, symName: __ZL10countZerosPKhmm, symObjAddr: 0x11028, symBinAddr: 0x100018D94, symSize: 0xD8 }
  - { offsetInCU: 0xE07A, offset: 0x26187, size: 0x8, addend: 0x0, symName: __ZL15updateHashChainP4Hashmjt, symObjAddr: 0x11100, symBinAddr: 0x100018E6C, symSize: 0xF8 }
  - { offsetInCU: 0xE0D2, offset: 0x261DF, size: 0x8, addend: 0x0, symName: __ZL18uivector_push_backP8uivectorj, symObjAddr: 0x111F8, symBinAddr: 0x100018F64, symSize: 0x78 }
  - { offsetInCU: 0xE10C, offset: 0x26219, size: 0x8, addend: 0x0, symName: __ZL17addLengthDistanceP8uivectormm, symObjAddr: 0x11270, symBinAddr: 0x100018FDC, symSize: 0xC8 }
  - { offsetInCU: 0xE191, offset: 0x2629E, size: 0x8, addend: 0x0, symName: __ZL15searchCodeIndexPKjmm, symObjAddr: 0x11338, symBinAddr: 0x1000190A4, symSize: 0xEC }
  - { offsetInCU: 0xE219, offset: 0x26326, size: 0x8, addend: 0x0, symName: __ZL15addBitsToStreamPmP8ucvectorjm, symObjAddr: 0x11424, symBinAddr: 0x100019190, symSize: 0xDC }
  - { offsetInCU: 0xE280, offset: 0x2638D, size: 0x8, addend: 0x0, symName: __ZL23addBitsToStreamReversedPmP8ucvectorjm, symObjAddr: 0x11500, symBinAddr: 0x10001926C, symSize: 0xE8 }
  - { offsetInCU: 0xE2E7, offset: 0x263F4, size: 0x8, addend: 0x0, symName: __ZL31HuffmanTree_makeFromFrequenciesP11HuffmanTreePKjmmj, symObjAddr: 0x115E8, symBinAddr: 0x100019354, symSize: 0x14C }
  - { offsetInCU: 0xE361, offset: 0x2646E, size: 0x8, addend: 0x0, symName: __ZL14update_adler32jPKhj, symObjAddr: 0x11734, symBinAddr: 0x1000194A0, symSize: 0x120 }
  - { offsetInCU: 0xE3E9, offset: 0x264F6, size: 0x8, addend: 0x0, symName: __ZL14string_cleanupPPc, symObjAddr: 0x11854, symBinAddr: 0x1000195C0, symSize: 0x30 }
  - { offsetInCU: 0xE414, offset: 0x26521, size: 0x8, addend: 0x0, symName: __ZL13string_resizePPcm, symObjAddr: 0x11884, symBinAddr: 0x1000195F0, symSize: 0x7C }
  - { offsetInCU: 0xE461, offset: 0x2656E, size: 0x8, addend: 0x0, symName: __ZL26readBitsFromReversedStreamPmPKhm, symObjAddr: 0x11900, symBinAddr: 0x10001966C, symSize: 0x88 }
  - { offsetInCU: 0xE4CC, offset: 0x265D9, size: 0x8, addend: 0x0, symName: __ZL25readBitFromReversedStreamPmPKh, symObjAddr: 0x11988, symBinAddr: 0x1000196F4, symSize: 0x5C }
  - { offsetInCU: 0xE519, offset: 0x26626, size: 0x8, addend: 0x0, symName: __ZL12addColorBitsPhmjj, symObjAddr: 0x119E4, symBinAddr: 0x100019750, symSize: 0x11C }
  - { offsetInCU: 0xE58F, offset: 0x2669C, size: 0x8, addend: 0x0, symName: __ZL14color_tree_getP9ColorTreehhhh, symObjAddr: 0x11B00, symBinAddr: 0x10001986C, symSize: 0x140 }
  - { offsetInCU: 0xE626, offset: 0x26733, size: 0x8, addend: 0x0, symName: __ZL22lodepng_pixel_overflowjjPK16LodePNGColorModeS1_, symObjAddr: 0x11C40, symBinAddr: 0x1000199AC, symSize: 0x1C4 }
  - { offsetInCU: 0xE6BE, offset: 0x267CB, size: 0x8, addend: 0x0, symName: __ZL14lodepng_addoflmmPm, symObjAddr: 0x11E04, symBinAddr: 0x100019B70, symSize: 0x44 }
  - { offsetInCU: 0xE70B, offset: 0x26818, size: 0x8, addend: 0x0, symName: __ZL14readChunk_PLTEP16LodePNGColorModePKhm, symObjAddr: 0x11E48, symBinAddr: 0x100019BB4, symSize: 0x1F8 }
  - { offsetInCU: 0xE776, offset: 0x26883, size: 0x8, addend: 0x0, symName: __ZL14readChunk_tRNSP16LodePNGColorModePKhm, symObjAddr: 0x12040, symBinAddr: 0x100019DAC, symSize: 0x208 }
  - { offsetInCU: 0xE7D2, offset: 0x268DF, size: 0x8, addend: 0x0, symName: __ZL14readChunk_bKGDP11LodePNGInfoPKhm, symObjAddr: 0x12248, symBinAddr: 0x100019FB4, symSize: 0x1EC }
  - { offsetInCU: 0xE81F, offset: 0x2692C, size: 0x8, addend: 0x0, symName: __ZL14readChunk_tEXtP11LodePNGInfoPKhm, symObjAddr: 0x12434, symBinAddr: 0x10001A1A0, symSize: 0x28C }
  - { offsetInCU: 0xE8D4, offset: 0x269E1, size: 0x8, addend: 0x0, symName: __ZL14readChunk_zTXtP11LodePNGInfoPK25LodePNGDecompressSettingsPKhm, symObjAddr: 0x126C0, symBinAddr: 0x10001A42C, symSize: 0x28C }
  - { offsetInCU: 0xE98A, offset: 0x26A97, size: 0x8, addend: 0x0, symName: __ZL14readChunk_iTXtP11LodePNGInfoPK25LodePNGDecompressSettingsPKhm, symObjAddr: 0x1294C, symBinAddr: 0x10001A6B8, symSize: 0x620 }
  - { offsetInCU: 0xEA6E, offset: 0x26B7B, size: 0x8, addend: 0x0, symName: __ZL14readChunk_tIMEP11LodePNGInfoPKhm, symObjAddr: 0x12F6C, symBinAddr: 0x10001ACD8, symSize: 0xC4 }
  - { offsetInCU: 0xEABB, offset: 0x26BC8, size: 0x8, addend: 0x0, symName: __ZL14readChunk_pHYsP11LodePNGInfoPKhm, symObjAddr: 0x13030, symBinAddr: 0x10001AD9C, symSize: 0xEC }
  - { offsetInCU: 0xEB08, offset: 0x26C15, size: 0x8, addend: 0x0, symName: __ZL25lodepng_get_raw_size_idatjjPK16LodePNGColorMode, symObjAddr: 0x1311C, symBinAddr: 0x10001AE88, symSize: 0x7C }
  - { offsetInCU: 0xEB73, offset: 0x26C80, size: 0x8, addend: 0x0, symName: __ZL16ucvector_cleanupPv, symObjAddr: 0x13198, symBinAddr: 0x10001AF04, symSize: 0x40 }
  - { offsetInCU: 0xEB9B, offset: 0x26CA8, size: 0x8, addend: 0x0, symName: __ZL20postProcessScanlinesPhS_jjPK11LodePNGInfo, symObjAddr: 0x131D8, symBinAddr: 0x10001AF44, symSize: 0x358 }
  - { offsetInCU: 0xECD8, offset: 0x26DE5, size: 0x8, addend: 0x0, symName: __ZL14lodepng_muloflmmPm, symObjAddr: 0x13530, symBinAddr: 0x10001B29C, symSize: 0x74 }
  - { offsetInCU: 0xED25, offset: 0x26E32, size: 0x8, addend: 0x0, symName: __ZL8unfilterPhPKhjjj, symObjAddr: 0x135A4, symBinAddr: 0x10001B310, symSize: 0x138 }
  - { offsetInCU: 0xEE24, offset: 0x26F31, size: 0x8, addend: 0x0, symName: __ZL17removePaddingBitsPhPKhmmj, symObjAddr: 0x136DC, symBinAddr: 0x10001B448, symSize: 0xDC }
  - { offsetInCU: 0xEF01, offset: 0x2700E, size: 0x8, addend: 0x0, symName: __ZL19Adam7_getpassvaluesPjS_PmS0_S0_jjj, symObjAddr: 0x137B8, symBinAddr: 0x10001B524, symSize: 0x2F4 }
  - { offsetInCU: 0xEFA6, offset: 0x270B3, size: 0x8, addend: 0x0, symName: __ZL17Adam7_deinterlacePhPKhjjj, symObjAddr: 0x13AAC, symBinAddr: 0x10001B818, symSize: 0x478 }
  - { offsetInCU: 0xF180, offset: 0x2728D, size: 0x8, addend: 0x0, symName: __ZL16unfilterScanlinePhPKhS1_mhm, symObjAddr: 0x13F24, symBinAddr: 0x10001BC90, symSize: 0x5EC }
  - { offsetInCU: 0xF209, offset: 0x27316, size: 0x8, addend: 0x0, symName: __ZL14paethPredictorsss, symObjAddr: 0x14524, symBinAddr: 0x10001C290, symSize: 0xE0 }
  - { offsetInCU: 0xF283, offset: 0x27390, size: 0x8, addend: 0x0, symName: __ZL22setBitOfReversedStreamPmPhh, symObjAddr: 0x14604, symBinAddr: 0x10001C370, symSize: 0xC4 }
  - { offsetInCU: 0xF2CC, offset: 0x273D9, size: 0x8, addend: 0x0, symName: __ZL23setBitOfReversedStream0PmPhh, symObjAddr: 0x146C8, symBinAddr: 0x10001C434, symSize: 0x78 }
  - { offsetInCU: 0xF315, offset: 0x27422, size: 0x8, addend: 0x0, symName: __ZL14addPaddingBitsPhPKhmmj, symObjAddr: 0x14740, symBinAddr: 0x10001C4AC, symSize: 0x110 }
  - { offsetInCU: 0xF3F2, offset: 0x274FF, size: 0x8, addend: 0x0, symName: __ZL6filterPhPKhjjPK16LodePNGColorModePK22LodePNGEncoderSettings, symObjAddr: 0x14850, symBinAddr: 0x10001C5BC, symSize: 0xE34 }
  - { offsetInCU: 0xF6FF, offset: 0x2780C, size: 0x8, addend: 0x0, symName: __ZL15Adam7_interlacePhPKhjjj, symObjAddr: 0x15684, symBinAddr: 0x10001D3F0, symSize: 0x478 }
  - { offsetInCU: 0xF8D9, offset: 0x279E6, size: 0x8, addend: 0x0, symName: __ZL14filterScanlinePhPKhS1_mmh, symObjAddr: 0x15AFC, symBinAddr: 0x10001D868, symSize: 0x5D8 }
  - { offsetInCU: 0xF95E, offset: 0x27A6B, size: 0x8, addend: 0x0, symName: __ZL5flog2f, symObjAddr: 0x160E8, symBinAddr: 0x10001DE54, symSize: 0xFC }
  - { offsetInCU: 0xF99C, offset: 0x27AA9, size: 0x8, addend: 0x0, symName: __ZL8addChunkP8ucvectorPKcPKhm, symObjAddr: 0x161E4, symBinAddr: 0x10001DF50, symSize: 0x88 }
  - { offsetInCU: 0xFA15, offset: 0x27B22, size: 0x8, addend: 0x0, symName: __ZNSt3__111__wrap_iterIPKhEC2B8ue170006IPhEERKNS0_IT_EEPNS_9enable_ifIXsr14is_convertibleIS6_S2_EE5valueEvE4typeE, symObjAddr: 0x1626C, symBinAddr: 0x10001DFD8, symSize: 0x40 }
  - { offsetInCU: 0xFA60, offset: 0x27B6D, size: 0x8, addend: 0x0, symName: __ZNKSt3__111__wrap_iterIPhE4baseB8ue170006Ev, symObjAddr: 0x162AC, symBinAddr: 0x10001E018, symSize: 0x18 }
  - { offsetInCU: 0xFA84, offset: 0x27B91, size: 0x8, addend: 0x0, symName: __ZN12LodePNGStateD0Ev, symObjAddr: 0x162C4, symBinAddr: 0x10001E030, symSize: 0x30 }
  - { offsetInCU: 0xFAAD, offset: 0x27BBA, size: 0x8, addend: 0x0, symName: __ZNKSt3__112basic_stringIcNS_11char_traitsIcEENS_9allocatorIcEEE4dataB8ue170006Ev, symObjAddr: 0x162F4, symBinAddr: 0x10001E060, symSize: 0x28 }
  - { offsetInCU: 0xFAD1, offset: 0x27BDE, size: 0x8, addend: 0x0, symName: __ZNKSt3__112basic_stringIcNS_11char_traitsIcEENS_9allocatorIcEEE13__get_pointerB8ue170006Ev, symObjAddr: 0x16330, symBinAddr: 0x10001E09C, symSize: 0x54 }
  - { offsetInCU: 0xFAF5, offset: 0x27C02, size: 0x8, addend: 0x0, symName: __ZNKSt3__112basic_stringIcNS_11char_traitsIcEENS_9allocatorIcEEE9__is_longB8ue170006Ev, symObjAddr: 0x16384, symBinAddr: 0x10001E0F0, symSize: 0x38 }
  - { offsetInCU: 0xFB19, offset: 0x27C26, size: 0x8, addend: 0x0, symName: __ZNKSt3__112basic_stringIcNS_11char_traitsIcEENS_9allocatorIcEEE18__get_long_pointerB8ue170006Ev, symObjAddr: 0x163BC, symBinAddr: 0x10001E128, symSize: 0x28 }
  - { offsetInCU: 0xFB3D, offset: 0x27C4A, size: 0x8, addend: 0x0, symName: __ZNKSt3__112basic_stringIcNS_11char_traitsIcEENS_9allocatorIcEEE19__get_short_pointerB8ue170006Ev, symObjAddr: 0x163E4, symBinAddr: 0x10001E150, symSize: 0x28 }
  - { offsetInCU: 0xFB61, offset: 0x27C6E, size: 0x8, addend: 0x0, symName: __ZNKSt3__117__compressed_pairINS_12basic_stringIcNS_11char_traitsIcEENS_9allocatorIcEEE5__repES5_E5firstB8ue170006Ev, symObjAddr: 0x1640C, symBinAddr: 0x10001E178, symSize: 0x24 }
  - { offsetInCU: 0xFB85, offset: 0x27C92, size: 0x8, addend: 0x0, symName: __ZNKSt3__122__compressed_pair_elemINS_12basic_stringIcNS_11char_traitsIcEENS_9allocatorIcEEE5__repELi0ELb0EE5__getB8ue170006Ev, symObjAddr: 0x16430, symBinAddr: 0x10001E19C, symSize: 0x14 }
  - { offsetInCU: 0xFBA9, offset: 0x27CB6, size: 0x8, addend: 0x0, symName: __ZNSt3__114pointer_traitsIPKcE10pointer_toB8ue170006ERS1_, symObjAddr: 0x16444, symBinAddr: 0x10001E1B0, symSize: 0x14 }
  - { offsetInCU: 0xFBCB, offset: 0x27CD8, size: 0x8, addend: 0x0, symName: __ZNSt3__16vectorIhNS_9allocatorIhEEE8__appendEm, symObjAddr: 0x16458, symBinAddr: 0x10001E1C4, symSize: 0x100 }
  - { offsetInCU: 0xFC27, offset: 0x27D34, size: 0x8, addend: 0x0, symName: __ZNSt3__16vectorIhNS_9allocatorIhEEE17__destruct_at_endB8ue170006EPh, symObjAddr: 0x16558, symBinAddr: 0x10001E2C4, symSize: 0x4C }
  - { offsetInCU: 0xFC69, offset: 0x27D76, size: 0x8, addend: 0x0, symName: __ZNSt3__16vectorIhNS_9allocatorIhEEE9__end_capB8ue170006Ev, symObjAddr: 0x165A4, symBinAddr: 0x10001E310, symSize: 0x28 }
  - { offsetInCU: 0xFC8C, offset: 0x27D99, size: 0x8, addend: 0x0, symName: __ZNSt3__16vectorIhNS_9allocatorIhEEE18__construct_at_endEm, symObjAddr: 0x165CC, symBinAddr: 0x10001E338, symSize: 0xC8 }
  - { offsetInCU: 0xFCFE, offset: 0x27E0B, size: 0x8, addend: 0x0, symName: __ZNSt3__16vectorIhNS_9allocatorIhEEE7__allocB8ue170006Ev, symObjAddr: 0x16694, symBinAddr: 0x10001E400, symSize: 0x28 }
  - { offsetInCU: 0xFD21, offset: 0x27E2E, size: 0x8, addend: 0x0, symName: __ZNKSt3__16vectorIhNS_9allocatorIhEEE11__recommendB8ue170006Em, symObjAddr: 0x166BC, symBinAddr: 0x10001E428, symSize: 0xB4 }
  - { offsetInCU: 0xFD76, offset: 0x27E83, size: 0x8, addend: 0x0, symName: __ZNSt3__114__split_bufferIhRNS_9allocatorIhEEEC1EmmS3_, symObjAddr: 0x16770, symBinAddr: 0x10001E4DC, symSize: 0x44 }
  - { offsetInCU: 0xFDCA, offset: 0x27ED7, size: 0x8, addend: 0x0, symName: __ZNSt3__114__split_bufferIhRNS_9allocatorIhEEE18__construct_at_endEm, symObjAddr: 0x167B4, symBinAddr: 0x10001E520, symSize: 0xB4 }
  - { offsetInCU: 0xFE0F, offset: 0x27F1C, size: 0x8, addend: 0x0, symName: __ZNSt3__114__split_bufferIhRNS_9allocatorIhEEED1Ev, symObjAddr: 0x16978, symBinAddr: 0x10001E6E4, symSize: 0x2C }
  - { offsetInCU: 0xFE3A, offset: 0x27F47, size: 0x8, addend: 0x0, symName: __ZNSt3__117__compressed_pairIPhNS_9allocatorIhEEE5firstB8ue170006Ev, symObjAddr: 0x169A4, symBinAddr: 0x10001E710, symSize: 0x24 }
  - { offsetInCU: 0xFE5E, offset: 0x27F6B, size: 0x8, addend: 0x0, symName: __ZNSt3__122__compressed_pair_elemIPhLi0ELb0EE5__getB8ue170006Ev, symObjAddr: 0x169C8, symBinAddr: 0x10001E734, symSize: 0x14 }
  - { offsetInCU: 0xFE9B, offset: 0x27FA8, size: 0x8, addend: 0x0, symName: __ZNSt3__16vectorIhNS_9allocatorIhEEE21_ConstructTransactionC1B8ue170006ERS3_m, symObjAddr: 0x169DC, symBinAddr: 0x10001E748, symSize: 0x3C }
  - { offsetInCU: 0xFEE2, offset: 0x27FEF, size: 0x8, addend: 0x0, symName: __ZNSt3__116allocator_traitsINS_9allocatorIhEEE9constructB8ue170006IhJEvEEvRS2_PT_DpOT0_, symObjAddr: 0x16A18, symBinAddr: 0x10001E784, symSize: 0x2C }
  - { offsetInCU: 0xFF24, offset: 0x28031, size: 0x8, addend: 0x0, symName: __ZNSt3__16vectorIhNS_9allocatorIhEEE21_ConstructTransactionD1B8ue170006Ev, symObjAddr: 0x16A58, symBinAddr: 0x10001E7C4, symSize: 0x2C }
  - { offsetInCU: 0xFF4D, offset: 0x2805A, size: 0x8, addend: 0x0, symName: __ZNSt3__16vectorIhNS_9allocatorIhEEE21_ConstructTransactionC2B8ue170006ERS3_m, symObjAddr: 0x16A84, symBinAddr: 0x10001E7F0, symSize: 0x44 }
  - { offsetInCU: 0xFF94, offset: 0x280A1, size: 0x8, addend: 0x0, symName: __ZNSt3__19allocatorIhE9constructB8ue170006IhJEEEvPT_DpOT0_, symObjAddr: 0x16AC8, symBinAddr: 0x10001E834, symSize: 0x1C }
  - { offsetInCU: 0xFFD4, offset: 0x280E1, size: 0x8, addend: 0x0, symName: __ZNSt3__16vectorIhNS_9allocatorIhEEE21_ConstructTransactionD2B8ue170006Ev, symObjAddr: 0x16AE4, symBinAddr: 0x10001E850, symSize: 0x20 }
  - { offsetInCU: 0xFFFD, offset: 0x2810A, size: 0x8, addend: 0x0, symName: __ZNSt3__117__compressed_pairIPhNS_9allocatorIhEEE6secondB8ue170006Ev, symObjAddr: 0x16B04, symBinAddr: 0x10001E870, symSize: 0x24 }
  - { offsetInCU: 0x10021, offset: 0x2812E, size: 0x8, addend: 0x0, symName: __ZNSt3__122__compressed_pair_elemINS_9allocatorIhEELi1ELb1EE5__getB8ue170006Ev, symObjAddr: 0x16B28, symBinAddr: 0x10001E894, symSize: 0x14 }
  - { offsetInCU: 0x10044, offset: 0x28151, size: 0x8, addend: 0x0, symName: __ZNKSt3__16vectorIhNS_9allocatorIhEEE8max_sizeEv, symObjAddr: 0x16B3C, symBinAddr: 0x10001E8A8, symSize: 0x60 }
  - { offsetInCU: 0x1006C, offset: 0x28179, size: 0x8, addend: 0x0, symName: __ZNKSt3__16vectorIhNS_9allocatorIhEEE20__throw_length_errorB8ue170006Ev, symObjAddr: 0x16B9C, symBinAddr: 0x10001E908, symSize: 0x1C }
  - { offsetInCU: 0x10090, offset: 0x2819D, size: 0x8, addend: 0x0, symName: __ZNKSt3__16vectorIhNS_9allocatorIhEEE8capacityB8ue170006Ev, symObjAddr: 0x16BB8, symBinAddr: 0x10001E924, symSize: 0x38 }
  - { offsetInCU: 0x100BE, offset: 0x281CB, size: 0x8, addend: 0x0, symName: __ZNSt3__116allocator_traitsINS_9allocatorIhEEE8max_sizeB8ue170006IS2_vEEmRKS2_, symObjAddr: 0x16C48, symBinAddr: 0x10001E95C, symSize: 0x24 }
  - { offsetInCU: 0x100EC, offset: 0x281F9, size: 0x8, addend: 0x0, symName: __ZNKSt3__16vectorIhNS_9allocatorIhEEE7__allocB8ue170006Ev, symObjAddr: 0x16C6C, symBinAddr: 0x10001E980, symSize: 0x28 }
  - { offsetInCU: 0x10110, offset: 0x2821D, size: 0x8, addend: 0x0, symName: __ZNKSt3__19allocatorIhE8max_sizeB8ue170006Ev, symObjAddr: 0x16D30, symBinAddr: 0x10001E9A8, symSize: 0x14 }
  - { offsetInCU: 0x10134, offset: 0x28241, size: 0x8, addend: 0x0, symName: __ZNKSt3__117__compressed_pairIPhNS_9allocatorIhEEE6secondB8ue170006Ev, symObjAddr: 0x16D44, symBinAddr: 0x10001E9BC, symSize: 0x24 }
  - { offsetInCU: 0x10158, offset: 0x28265, size: 0x8, addend: 0x0, symName: __ZNKSt3__122__compressed_pair_elemINS_9allocatorIhEELi1ELb1EE5__getB8ue170006Ev, symObjAddr: 0x16D68, symBinAddr: 0x10001E9E0, symSize: 0x14 }
  - { offsetInCU: 0x1017C, offset: 0x28289, size: 0x8, addend: 0x0, symName: __ZNKSt3__16vectorIhNS_9allocatorIhEEE9__end_capB8ue170006Ev, symObjAddr: 0x16E68, symBinAddr: 0x10001E9F4, symSize: 0x28 }
  - { offsetInCU: 0x101A0, offset: 0x282AD, size: 0x8, addend: 0x0, symName: __ZNKSt3__117__compressed_pairIPhNS_9allocatorIhEEE5firstB8ue170006Ev, symObjAddr: 0x16E90, symBinAddr: 0x10001EA1C, symSize: 0x24 }
  - { offsetInCU: 0x101C4, offset: 0x282D1, size: 0x8, addend: 0x0, symName: __ZNKSt3__122__compressed_pair_elemIPhLi0ELb0EE5__getB8ue170006Ev, symObjAddr: 0x16EB4, symBinAddr: 0x10001EA40, symSize: 0x14 }
  - { offsetInCU: 0x101E8, offset: 0x282F5, size: 0x8, addend: 0x0, symName: __ZNSt3__114__split_bufferIhRNS_9allocatorIhEEEC2EmmS3_, symObjAddr: 0x16F1C, symBinAddr: 0x10001EA54, symSize: 0xD4 }
  - { offsetInCU: 0x10260, offset: 0x2836D, size: 0x8, addend: 0x0, symName: __ZNSt3__117__compressed_pairIPhRNS_9allocatorIhEEEC1B8ue170006IDnS4_EEOT_OT0_, symObjAddr: 0x16FF0, symBinAddr: 0x10001EB28, symSize: 0x3C }
  - { offsetInCU: 0x102B7, offset: 0x283C4, size: 0x8, addend: 0x0, symName: __ZNSt3__114__split_bufferIhRNS_9allocatorIhEEE7__allocB8ue170006Ev, symObjAddr: 0x1706C, symBinAddr: 0x10001EBA4, symSize: 0x28 }
  - { offsetInCU: 0x102DB, offset: 0x283E8, size: 0x8, addend: 0x0, symName: __ZNSt3__114__split_bufferIhRNS_9allocatorIhEEE9__end_capB8ue170006Ev, symObjAddr: 0x17094, symBinAddr: 0x10001EBCC, symSize: 0x28 }
  - { offsetInCU: 0x102FF, offset: 0x2840C, size: 0x8, addend: 0x0, symName: __ZNSt3__117__compressed_pairIPhRNS_9allocatorIhEEEC2B8ue170006IDnS4_EEOT_OT0_, symObjAddr: 0x170BC, symBinAddr: 0x10001EBF4, symSize: 0x48 }
  - { offsetInCU: 0x10356, offset: 0x28463, size: 0x8, addend: 0x0, symName: __ZNSt3__122__compressed_pair_elemIPhLi0ELb0EEC2B8ue170006IDnvEEOT_, symObjAddr: 0x17104, symBinAddr: 0x10001EC3C, symSize: 0x1C }
  - { offsetInCU: 0x10397, offset: 0x284A4, size: 0x8, addend: 0x0, symName: __ZNSt3__122__compressed_pair_elemIRNS_9allocatorIhEELi1ELb0EEC2B8ue170006IS3_vEEOT_, symObjAddr: 0x17120, symBinAddr: 0x10001EC58, symSize: 0x20 }
  - { offsetInCU: 0x103D8, offset: 0x284E5, size: 0x8, addend: 0x0, symName: __ZNSt3__19allocatorIhE8allocateB8ue170006Em, symObjAddr: 0x17140, symBinAddr: 0x10001EC78, symSize: 0x58 }
  - { offsetInCU: 0x1040A, offset: 0x28517, size: 0x8, addend: 0x0, symName: __ZNSt3__117__compressed_pairIPhRNS_9allocatorIhEEE6secondB8ue170006Ev, symObjAddr: 0x1729C, symBinAddr: 0x10001ECD0, symSize: 0x28 }
  - { offsetInCU: 0x1042E, offset: 0x2853B, size: 0x8, addend: 0x0, symName: __ZNSt3__122__compressed_pair_elemIRNS_9allocatorIhEELi1ELb0EE5__getB8ue170006Ev, symObjAddr: 0x172C4, symBinAddr: 0x10001ECF8, symSize: 0x18 }
  - { offsetInCU: 0x10452, offset: 0x2855F, size: 0x8, addend: 0x0, symName: __ZNSt3__117__compressed_pairIPhRNS_9allocatorIhEEE5firstB8ue170006Ev, symObjAddr: 0x172DC, symBinAddr: 0x10001ED10, symSize: 0x24 }
  - { offsetInCU: 0x10480, offset: 0x2858D, size: 0x8, addend: 0x0, symName: __ZNSt3__114__split_bufferIhRNS_9allocatorIhEEE21_ConstructTransactionC1B8ue170006EPPhm, symObjAddr: 0x17300, symBinAddr: 0x10001ED34, symSize: 0x3C }
  - { offsetInCU: 0x104C5, offset: 0x285D2, size: 0x8, addend: 0x0, symName: __ZNSt3__114__split_bufferIhRNS_9allocatorIhEEE21_ConstructTransactionD1B8ue170006Ev, symObjAddr: 0x1733C, symBinAddr: 0x10001ED70, symSize: 0x2C }
  - { offsetInCU: 0x104EE, offset: 0x285FB, size: 0x8, addend: 0x0, symName: __ZNSt3__114__split_bufferIhRNS_9allocatorIhEEE21_ConstructTransactionC2B8ue170006EPPhm, symObjAddr: 0x17368, symBinAddr: 0x10001ED9C, symSize: 0x44 }
  - { offsetInCU: 0x10533, offset: 0x28640, size: 0x8, addend: 0x0, symName: __ZNSt3__114__split_bufferIhRNS_9allocatorIhEEE21_ConstructTransactionD2B8ue170006Ev, symObjAddr: 0x173AC, symBinAddr: 0x10001EDE0, symSize: 0x20 }
  - { offsetInCU: 0x1055C, offset: 0x28669, size: 0x8, addend: 0x0, symName: __ZNKSt3__16vectorIhNS_9allocatorIhEEE17__annotate_deleteB8ue170006Ev, symObjAddr: 0x173CC, symBinAddr: 0x10001EE00, symSize: 0xB8 }
  - { offsetInCU: 0x10580, offset: 0x2868D, size: 0x8, addend: 0x0, symName: __ZNSt3__116reverse_iteratorIPhEC1B8ue170006ES1_, symObjAddr: 0x174FC, symBinAddr: 0x10001EF30, symSize: 0x34 }
  - { offsetInCU: 0x105B7, offset: 0x286C4, size: 0x8, addend: 0x0, symName: __ZNKSt3__116reverse_iteratorIPhE4baseB8ue170006Ev, symObjAddr: 0x17530, symBinAddr: 0x10001EF64, symSize: 0x18 }
  - { offsetInCU: 0x105DB, offset: 0x286E8, size: 0x8, addend: 0x0, symName: __ZNKSt3__16vectorIhNS_9allocatorIhEEE14__annotate_newB8ue170006Em, symObjAddr: 0x17584, symBinAddr: 0x10001EFB8, symSize: 0xAC }
  - { offsetInCU: 0x1060E, offset: 0x2871B, size: 0x8, addend: 0x0, symName: __ZNKSt3__16vectorIhNS_9allocatorIhEEE31__annotate_contiguous_containerB8ue170006EPKvS5_S5_S5_, symObjAddr: 0x17630, symBinAddr: 0x10001F064, symSize: 0x20 }
  - { offsetInCU: 0x1065E, offset: 0x2876B, size: 0x8, addend: 0x0, symName: __ZNKSt3__16vectorIhNS_9allocatorIhEEE4dataB8ue170006Ev, symObjAddr: 0x17650, symBinAddr: 0x10001F084, symSize: 0x28 }
  - { offsetInCU: 0x106A6, offset: 0x287B3, size: 0x8, addend: 0x0, symName: __ZNKSt3__111__move_loopINS_17_ClassicAlgPolicyEEclB8ue170006INS_16reverse_iteratorIPhEES6_S6_EENS_4pairIT_T1_EES8_T0_S9_, symObjAddr: 0x17968, symBinAddr: 0x10001F39C, symSize: 0xA0 }
  - { offsetInCU: 0x10715, offset: 0x28822, size: 0x8, addend: 0x0, symName: __ZNSt3__18_IterOpsINS_17_ClassicAlgPolicyEE11__iter_moveB8ue170006IRNS_16reverse_iteratorIPhEEEENS_9enable_ifIXsr12is_referenceIDTdeclsr3stdE7declvalIRT_EEEEE5valueEDTclsr3stdE4movedeclsr3stdE7declvalISA_EEEEE4typeEOS9_, symObjAddr: 0x17B9C, symBinAddr: 0x10001F5D0, symSize: 0x28 }
  - { offsetInCU: 0x10741, offset: 0x2884E, size: 0x8, addend: 0x0, symName: __ZNKSt3__116reverse_iteratorIPhEdeB8ue170006Ev, symObjAddr: 0x17BC4, symBinAddr: 0x10001F5F8, symSize: 0x28 }
  - { offsetInCU: 0x10773, offset: 0x28880, size: 0x8, addend: 0x0, symName: __ZNSt3__116reverse_iteratorIPhEppB8ue170006Ev, symObjAddr: 0x17BEC, symBinAddr: 0x10001F620, symSize: 0x20 }
  - { offsetInCU: 0x10797, offset: 0x288A4, size: 0x8, addend: 0x0, symName: __ZNSt3__18_IterOpsINS_17_ClassicAlgPolicyEE25__validate_iter_referenceB8ue170006IRNS_16reverse_iteratorIPhEEEEvv, symObjAddr: 0x17C0C, symBinAddr: 0x10001F640, symSize: 0x4 }
  - { offsetInCU: 0x107B5, offset: 0x288C2, size: 0x8, addend: 0x0, symName: __ZNSt3__118__unwrap_iter_implINS_16reverse_iteratorIPhEELb0EE8__unwrapB8ue170006ES3_, symObjAddr: 0x17C10, symBinAddr: 0x10001F644, symSize: 0x24 }
  - { offsetInCU: 0x107DE, offset: 0x288EB, size: 0x8, addend: 0x0, symName: __ZNSt3__14pairINS_16reverse_iteratorIPhEES3_EC1B8ue170006IS3_S3_LPv0EEEOT_OT0_, symObjAddr: 0x17C34, symBinAddr: 0x10001F668, symSize: 0x3C }
  - { offsetInCU: 0x1083B, offset: 0x28948, size: 0x8, addend: 0x0, symName: __ZNSt3__14pairINS_16reverse_iteratorIPhEES3_EC2B8ue170006IS3_S3_LPv0EEEOT_OT0_, symObjAddr: 0x17C70, symBinAddr: 0x10001F6A4, symSize: 0x34 }
  - { offsetInCU: 0x10898, offset: 0x289A5, size: 0x8, addend: 0x0, symName: __ZNSt3__118__unwrap_iter_implINS_16reverse_iteratorIPhEELb0EE8__rewrapB8ue170006ES3_S3_, symObjAddr: 0x17CA4, symBinAddr: 0x10001F6D8, symSize: 0x2C }
  - { offsetInCU: 0x108C6, offset: 0x289D3, size: 0x8, addend: 0x0, symName: __ZNSt3__116reverse_iteratorIPhEC2B8ue170006ES1_, symObjAddr: 0x17CD0, symBinAddr: 0x10001F704, symSize: 0x28 }
  - { offsetInCU: 0x108FD, offset: 0x28A0A, size: 0x8, addend: 0x0, symName: __ZNSt3__114__split_bufferIhRNS_9allocatorIhEEED2Ev, symObjAddr: 0x17CF8, symBinAddr: 0x10001F72C, symSize: 0x8C }
  - { offsetInCU: 0x10928, offset: 0x28A35, size: 0x8, addend: 0x0, symName: __ZNSt3__114__split_bufferIhRNS_9allocatorIhEEE5clearB8ue170006Ev, symObjAddr: 0x17D84, symBinAddr: 0x10001F7B8, symSize: 0x28 }
  - { offsetInCU: 0x1094C, offset: 0x28A59, size: 0x8, addend: 0x0, symName: __ZNSt3__116allocator_traitsINS_9allocatorIhEEE10deallocateB8ue170006ERS2_Phm, symObjAddr: 0x17DAC, symBinAddr: 0x10001F7E0, symSize: 0x34 }
  - { offsetInCU: 0x1098E, offset: 0x28A9B, size: 0x8, addend: 0x0, symName: __ZNKSt3__114__split_bufferIhRNS_9allocatorIhEEE8capacityB8ue170006Ev, symObjAddr: 0x17DE0, symBinAddr: 0x10001F814, symSize: 0x38 }
  - { offsetInCU: 0x109B2, offset: 0x28ABF, size: 0x8, addend: 0x0, symName: __ZNSt3__114__split_bufferIhRNS_9allocatorIhEEE17__destruct_at_endB8ue170006EPh, symObjAddr: 0x17E18, symBinAddr: 0x10001F84C, symSize: 0x2C }
  - { offsetInCU: 0x109E3, offset: 0x28AF0, size: 0x8, addend: 0x0, symName: __ZNSt3__114__split_bufferIhRNS_9allocatorIhEEE17__destruct_at_endB8ue170006EPhNS_17integral_constantIbLb0EEE, symObjAddr: 0x17E44, symBinAddr: 0x10001F878, symSize: 0x80 }
  - { offsetInCU: 0x10A24, offset: 0x28B31, size: 0x8, addend: 0x0, symName: __ZNSt3__116allocator_traitsINS_9allocatorIhEEE7destroyB8ue170006IhvEEvRS2_PT_, symObjAddr: 0x17EC4, symBinAddr: 0x10001F8F8, symSize: 0x2C }
  - { offsetInCU: 0x10A61, offset: 0x28B6E, size: 0x8, addend: 0x0, symName: __ZNSt3__19allocatorIhE7destroyB8ue170006EPh, symObjAddr: 0x17EF0, symBinAddr: 0x10001F924, symSize: 0x14 }
  - { offsetInCU: 0x10A93, offset: 0x28BA0, size: 0x8, addend: 0x0, symName: __ZNSt3__19allocatorIhE10deallocateB8ue170006EPhm, symObjAddr: 0x17F04, symBinAddr: 0x10001F938, symSize: 0x40 }
  - { offsetInCU: 0x10AD3, offset: 0x28BE0, size: 0x8, addend: 0x0, symName: __ZNKSt3__114__split_bufferIhRNS_9allocatorIhEEE9__end_capB8ue170006Ev, symObjAddr: 0x1804C, symBinAddr: 0x10001F978, symSize: 0x28 }
  - { offsetInCU: 0x10AF7, offset: 0x28C04, size: 0x8, addend: 0x0, symName: __ZNKSt3__117__compressed_pairIPhRNS_9allocatorIhEEE5firstB8ue170006Ev, symObjAddr: 0x18074, symBinAddr: 0x10001F9A0, symSize: 0x24 }
  - { offsetInCU: 0x10B1B, offset: 0x28C28, size: 0x8, addend: 0x0, symName: __ZNSt3__16vectorIhNS_9allocatorIhEEE22__base_destruct_at_endB8ue170006EPh, symObjAddr: 0x18098, symBinAddr: 0x10001F9C4, symSize: 0x8C }
  - { offsetInCU: 0x10B5D, offset: 0x28C6A, size: 0x8, addend: 0x0, symName: __ZNKSt3__16vectorIhNS_9allocatorIhEEE17__annotate_shrinkB8ue170006Em, symObjAddr: 0x18124, symBinAddr: 0x10001FA50, symSize: 0xB4 }
  - { offsetInCU: 0x10B90, offset: 0x28C9D, size: 0x8, addend: 0x0, symName: __ZNSt3__16vectorIhNS_9allocatorIhEEE11__make_iterB8ue170006EPh, symObjAddr: 0x181D8, symBinAddr: 0x10001FB04, symSize: 0x30 }
  - { offsetInCU: 0x10BC3, offset: 0x28CD0, size: 0x8, addend: 0x0, symName: __ZNSt3__111__wrap_iterIPhEC1B8ue170006ES1_, symObjAddr: 0x18208, symBinAddr: 0x10001FB34, symSize: 0x34 }
  - { offsetInCU: 0x10BFA, offset: 0x28D07, size: 0x8, addend: 0x0, symName: __ZNSt3__111__wrap_iterIPhEC2B8ue170006ES1_, symObjAddr: 0x1823C, symBinAddr: 0x10001FB68, symSize: 0x20 }
  - { offsetInCU: 0x10C30, offset: 0x28D3D, size: 0x8, addend: 0x0, symName: __ZNSt3__16vectorIhNS_9allocatorIhEEE18__insert_with_sizeB8ue170006IPhS5_EENS_11__wrap_iterIS5_EENS6_IPKhEET_T0_l, symObjAddr: 0x1825C, symBinAddr: 0x10001FB88, symSize: 0x290 }
  - { offsetInCU: 0x10D58, offset: 0x28E65, size: 0x8, addend: 0x0, symName: __ZNSt3__16vectorIhNS_9allocatorIhEEE5beginB8ue170006Ev, symObjAddr: 0x18558, symBinAddr: 0x10001FE84, symSize: 0x30 }
  - { offsetInCU: 0x10D7F, offset: 0x28E8C, size: 0x8, addend: 0x0, symName: __ZNSt3__16vectorIhNS_9allocatorIhEEE18__construct_at_endIPhS5_EEvT_T0_m, symObjAddr: 0x185F4, symBinAddr: 0x10001FF20, symSize: 0x8C }
  - { offsetInCU: 0x10DF4, offset: 0x28F01, size: 0x8, addend: 0x0, symName: __ZNSt3__16vectorIhNS_9allocatorIhEEE12__move_rangeEPhS4_S4_, symObjAddr: 0x18680, symBinAddr: 0x10001FFAC, symSize: 0x120 }
  - { offsetInCU: 0x10EAF, offset: 0x28FBC, size: 0x8, addend: 0x0, symName: __ZNSt3__114__split_bufferIhRNS_9allocatorIhEEE28__construct_at_end_with_sizeIPhEEvT_m, symObjAddr: 0x187E0, symBinAddr: 0x10002010C, symSize: 0xC8 }
  - { offsetInCU: 0x10F0B, offset: 0x29018, size: 0x8, addend: 0x0, symName: __ZNKSt3__111__wrap_iterIPKhE4baseB8ue170006Ev, symObjAddr: 0x189F4, symBinAddr: 0x100020320, symSize: 0x18 }
  - { offsetInCU: 0x10F4F, offset: 0x2905C, size: 0x8, addend: 0x0, symName: __ZNSt3__14pairIPhS1_EC1B8ue170006IS1_S1_LPv0EEEOT_OT0_, symObjAddr: 0x18BF8, symBinAddr: 0x100020510, symSize: 0x3C }
  - { offsetInCU: 0x10FAC, offset: 0x290B9, size: 0x8, addend: 0x0, symName: __ZNSt3__14pairIPhS1_EC2B8ue170006IS1_S1_LPv0EEEOT_OT0_, symObjAddr: 0x18C34, symBinAddr: 0x10002054C, symSize: 0x34 }
  - { offsetInCU: 0x11009, offset: 0x29116, size: 0x8, addend: 0x0, symName: __ZNSt3__118__unwrap_iter_implIPhLb1EE8__unwrapB8ue170006ES1_, symObjAddr: 0x18C68, symBinAddr: 0x100020580, symSize: 0x24 }
  - { offsetInCU: 0x1102C, offset: 0x29139, size: 0x8, addend: 0x0, symName: __ZNSt3__118__unwrap_iter_implIPhLb1EE8__rewrapB8ue170006ES1_S1_, symObjAddr: 0x18C8C, symBinAddr: 0x1000205A4, symSize: 0x48 }
  - { offsetInCU: 0x1105D, offset: 0x2916A, size: 0x8, addend: 0x0, symName: __ZNSt3__116allocator_traitsINS_9allocatorIhEEE9constructB8ue170006IhJhEvEEvRS2_PT_DpOT0_, symObjAddr: 0x18CD4, symBinAddr: 0x1000205EC, symSize: 0x34 }
  - { offsetInCU: 0x110B4, offset: 0x291C1, size: 0x8, addend: 0x0, symName: __ZNSt3__19allocatorIhE9constructB8ue170006IhJhEEEvPT_DpOT0_, symObjAddr: 0x18D48, symBinAddr: 0x100020660, symSize: 0x28 }
  - { offsetInCU: 0x11112, offset: 0x2921F, size: 0x8, addend: 0x0, symName: __ZNKSt3__123__move_backward_trivialclB8ue170006IhhLi0EEENS_4pairIPT_PT0_EES4_S4_S6_, symObjAddr: 0x18EAC, symBinAddr: 0x1000207C4, symSize: 0x48 }
  - { offsetInCU: 0x11178, offset: 0x29285, size: 0x8, addend: 0x0, symName: __ZNSt3__14pairIPhS1_EC1B8ue170006IRS1_S4_LPv0EEEOT_OT0_, symObjAddr: 0x1903C, symBinAddr: 0x100020954, symSize: 0x3C }
  - { offsetInCU: 0x111D5, offset: 0x292E2, size: 0x8, addend: 0x0, symName: __ZNSt3__14pairIPhS1_EC2B8ue170006IRS1_S4_LPv0EEEOT_OT0_, symObjAddr: 0x19078, symBinAddr: 0x100020990, symSize: 0x34 }
  - { offsetInCU: 0x1123C, offset: 0x29349, size: 0x8, addend: 0x0, symName: __ZNKSt3__114__copy_trivialclB8ue170006IhhLi0EEENS_4pairIPT_PT0_EES4_S4_S6_, symObjAddr: 0x191E8, symBinAddr: 0x100020B00, symSize: 0x48 }
  - { offsetInCU: 0x112A2, offset: 0x293AF, size: 0x8, addend: 0x0, symName: __ZNSt3__14pairIPhS1_EC1B8ue170006IRS1_S1_LPv0EEEOT_OT0_, symObjAddr: 0x192E0, symBinAddr: 0x100020BF8, symSize: 0x3C }
  - { offsetInCU: 0x112FF, offset: 0x2940C, size: 0x8, addend: 0x0, symName: __ZNSt3__14pairIPhS1_EC2B8ue170006IRS1_S1_LPv0EEEOT_OT0_, symObjAddr: 0x1931C, symBinAddr: 0x100020C34, symSize: 0x34 }
  - { offsetInCU: 0x1135C, offset: 0x29469, size: 0x8, addend: 0x0, symName: __ZNSt3__116allocator_traitsINS_9allocatorIhEEE9constructB8ue170006IhJRhEvEEvRS2_PT_DpOT0_, symObjAddr: 0x19350, symBinAddr: 0x100020C68, symSize: 0x34 }
  - { offsetInCU: 0x113B3, offset: 0x294C0, size: 0x8, addend: 0x0, symName: __ZNSt3__19allocatorIhE9constructB8ue170006IhJRhEEEvPT_DpOT0_, symObjAddr: 0x19384, symBinAddr: 0x100020C9C, symSize: 0x28 }
  - { offsetInCU: 0x11411, offset: 0x2951E, size: 0x8, addend: 0x0, symName: __ZNKSt3__114__move_trivialclB8ue170006IhhLi0EEENS_4pairIPT_PT0_EES4_S4_S6_, symObjAddr: 0x19560, symBinAddr: 0x100020E78, symSize: 0x48 }
  - { offsetInCU: 0x11477, offset: 0x29584, size: 0x8, addend: 0x0, symName: __ZNSt3__16vectorIhNS_9allocatorIhEEEC2B8ue170006Ev, symObjAddr: 0x195C8, symBinAddr: 0x100020EE0, symSize: 0x4C }
  - { offsetInCU: 0x114A6, offset: 0x295B3, size: 0x8, addend: 0x0, symName: __ZNSt3__117__compressed_pairIPhNS_9allocatorIhEEEC1B8ue170006IDnNS_18__default_init_tagEEEOT_OT0_, symObjAddr: 0x19614, symBinAddr: 0x100020F2C, symSize: 0x3C }
  - { offsetInCU: 0x114FD, offset: 0x2960A, size: 0x8, addend: 0x0, symName: __ZNSt3__117__compressed_pairIPhNS_9allocatorIhEEEC2B8ue170006IDnNS_18__default_init_tagEEEOT_OT0_, symObjAddr: 0x19650, symBinAddr: 0x100020F68, symSize: 0x40 }
  - { offsetInCU: 0x11554, offset: 0x29661, size: 0x8, addend: 0x0, symName: __ZNSt3__122__compressed_pair_elemINS_9allocatorIhEELi1ELb1EEC2B8ue170006ENS_18__default_init_tagE, symObjAddr: 0x19690, symBinAddr: 0x100020FA8, symSize: 0x2C }
  - { offsetInCU: 0x11588, offset: 0x29695, size: 0x8, addend: 0x0, symName: __ZNSt3__19allocatorIhEC2B8ue170006Ev, symObjAddr: 0x196BC, symBinAddr: 0x100020FD4, symSize: 0x2C }
  - { offsetInCU: 0x115B1, offset: 0x296BE, size: 0x8, addend: 0x0, symName: __ZNSt3__116__non_trivial_ifILb1ENS_9allocatorIhEEEC2B8ue170006Ev, symObjAddr: 0x196E8, symBinAddr: 0x100021000, symSize: 0x14 }
  - { offsetInCU: 0x115DA, offset: 0x296E7, size: 0x8, addend: 0x0, symName: __ZNSt3__16vectorIhNS_9allocatorIhEEED2B8ue170006Ev, symObjAddr: 0x196FC, symBinAddr: 0x100021014, symSize: 0x44 }
  - { offsetInCU: 0x11603, offset: 0x29710, size: 0x8, addend: 0x0, symName: __ZNSt3__16vectorIhNS_9allocatorIhEEE16__destroy_vectorC1B8ue170006ERS3_, symObjAddr: 0x19740, symBinAddr: 0x100021058, symSize: 0x34 }
  - { offsetInCU: 0x1163B, offset: 0x29748, size: 0x8, addend: 0x0, symName: __ZNSt3__16vectorIhNS_9allocatorIhEEE16__destroy_vectorclB8ue170006Ev, symObjAddr: 0x19774, symBinAddr: 0x10002108C, symSize: 0x90 }
  - { offsetInCU: 0x1165F, offset: 0x2976C, size: 0x8, addend: 0x0, symName: __ZNSt3__16vectorIhNS_9allocatorIhEEE16__destroy_vectorC2B8ue170006ERS3_, symObjAddr: 0x19804, symBinAddr: 0x10002111C, symSize: 0x20 }
  - { offsetInCU: 0x11697, offset: 0x297A4, size: 0x8, addend: 0x0, symName: __ZNSt3__16vectorIhNS_9allocatorIhEEE7__clearB8ue170006Ev, symObjAddr: 0x19824, symBinAddr: 0x10002113C, symSize: 0x28 }
  - { offsetInCU: 0x26, offset: 0x29B48, size: 0x8, addend: 0x0, symName: __ZN7GMatrixC2Ev, symObjAddr: 0x0, symBinAddr: 0x100021164, symSize: 0x34 }
  - { offsetInCU: 0x2E46, offset: 0x2C968, size: 0x8, addend: 0x0, symName: __ZN7GMatrixC2Ev, symObjAddr: 0x0, symBinAddr: 0x100021164, symSize: 0x34 }
  - { offsetInCU: 0x2E71, offset: 0x2C993, size: 0x8, addend: 0x0, symName: __ZN7GMatrixC1Ev, symObjAddr: 0x34, symBinAddr: 0x100021198, symSize: 0x2C }
  - { offsetInCU: 0x2E9C, offset: 0x2C9BE, size: 0x8, addend: 0x0, symName: __ZN7GMatrix9TranslateEff, symObjAddr: 0x60, symBinAddr: 0x1000211C4, symSize: 0x40 }
  - { offsetInCU: 0x2ECE, offset: 0x2C9F0, size: 0x8, addend: 0x0, symName: __ZN7GMatrixC1Effffff, symObjAddr: 0xA0, symBinAddr: 0x100021204, symSize: 0x5C }
  - { offsetInCU: 0x2F4B, offset: 0x2CA6D, size: 0x8, addend: 0x0, symName: __ZN7GMatrix5ScaleEff, symObjAddr: 0xFC, symBinAddr: 0x100021260, symSize: 0x40 }
  - { offsetInCU: 0x2F7D, offset: 0x2CA9F, size: 0x8, addend: 0x0, symName: __ZN7GMatrix6RotateEf, symObjAddr: 0x13C, symBinAddr: 0x1000212A0, symSize: 0x5C }
  - { offsetInCU: 0x2FBD, offset: 0x2CADF, size: 0x8, addend: 0x0, symName: __Z3cosB8ue170006f, symObjAddr: 0x198, symBinAddr: 0x1000212FC, symSize: 0x24 }
  - { offsetInCU: 0x2FEB, offset: 0x2CB0D, size: 0x8, addend: 0x0, symName: __Z3sinB8ue170006f, symObjAddr: 0x1BC, symBinAddr: 0x100021320, symSize: 0x24 }
  - { offsetInCU: 0x3019, offset: 0x2CB3B, size: 0x8, addend: 0x0, symName: __ZN7GMatrix6ConcatERKS_S1_, symObjAddr: 0x1E0, symBinAddr: 0x100021344, symSize: 0x29C }
  - { offsetInCU: 0x304B, offset: 0x2CB6D, size: 0x8, addend: 0x0, symName: __ZNK7GMatrixixEi, symObjAddr: 0x47C, symBinAddr: 0x1000215E0, symSize: 0x94 }
  - { offsetInCU: 0x307D, offset: 0x2CB9F, size: 0x8, addend: 0x0, symName: __ZNK7GMatrix6invertEv, symObjAddr: 0x510, symBinAddr: 0x100021674, symSize: 0xFC }
  - { offsetInCU: 0x30B1, offset: 0x2CBD3, size: 0x8, addend: 0x0, symName: __ZNSt3__18optionalI7GMatrixEC1B8ue170006Ev, symObjAddr: 0x60C, symBinAddr: 0x100021770, symSize: 0x2C }
  - { offsetInCU: 0x30E0, offset: 0x2CC02, size: 0x8, addend: 0x0, symName: __ZNSt3__18optionalI7GMatrixEC1B8ue170006IS1_Li0EEEOT_, symObjAddr: 0x638, symBinAddr: 0x10002179C, symSize: 0x34 }
  - { offsetInCU: 0x3127, offset: 0x2CC49, size: 0x8, addend: 0x0, symName: __ZNK7GMatrix9mapPointsEP6GPointPKS0_i, symObjAddr: 0x66C, symBinAddr: 0x1000217D0, symSize: 0x1C8 }
  - { offsetInCU: 0x31DA, offset: 0x2CCFC, size: 0x8, addend: 0x0, symName: __ZN7GMatrixC2Effffff, symObjAddr: 0x834, symBinAddr: 0x100021998, symSize: 0x5C }
  - { offsetInCU: 0x3257, offset: 0x2CD79, size: 0x8, addend: 0x0, symName: __ZNSt3__18optionalI7GMatrixEC2B8ue170006Ev, symObjAddr: 0x890, symBinAddr: 0x1000219F4, symSize: 0x2C }
  - { offsetInCU: 0x3285, offset: 0x2CDA7, size: 0x8, addend: 0x0, symName: __ZNSt3__127__optional_move_assign_baseI7GMatrixLb1EEC2Ev, symObjAddr: 0x8BC, symBinAddr: 0x100021A20, symSize: 0x2C }
  - { offsetInCU: 0x32B6, offset: 0x2CDD8, size: 0x8, addend: 0x0, symName: __ZNSt3__127__optional_copy_assign_baseI7GMatrixLb1EEC2Ev, symObjAddr: 0x8E8, symBinAddr: 0x100021A4C, symSize: 0x2C }
  - { offsetInCU: 0x32E7, offset: 0x2CE09, size: 0x8, addend: 0x0, symName: __ZNSt3__120__optional_move_baseI7GMatrixLb1EEC2Ev, symObjAddr: 0x914, symBinAddr: 0x100021A78, symSize: 0x2C }
  - { offsetInCU: 0x3318, offset: 0x2CE3A, size: 0x8, addend: 0x0, symName: __ZNSt3__120__optional_copy_baseI7GMatrixLb1EEC2Ev, symObjAddr: 0x940, symBinAddr: 0x100021AA4, symSize: 0x2C }
  - { offsetInCU: 0x3344, offset: 0x2CE66, size: 0x8, addend: 0x0, symName: __ZNSt3__123__optional_storage_baseI7GMatrixLb0EEC2Ev, symObjAddr: 0x96C, symBinAddr: 0x100021AD0, symSize: 0x2C }
  - { offsetInCU: 0x3370, offset: 0x2CE92, size: 0x8, addend: 0x0, symName: __ZNSt3__124__optional_destruct_baseI7GMatrixLb1EEC2B8ue170006Ev, symObjAddr: 0x998, symBinAddr: 0x100021AFC, symSize: 0x1C }
  - { offsetInCU: 0x3399, offset: 0x2CEBB, size: 0x8, addend: 0x0, symName: __ZNSt3__18optionalI7GMatrixEC2B8ue170006IS1_Li0EEEOT_, symObjAddr: 0x9B4, symBinAddr: 0x100021B18, symSize: 0x34 }
  - { offsetInCU: 0x33E0, offset: 0x2CF02, size: 0x8, addend: 0x0, symName: __ZNSt3__127__optional_move_assign_baseI7GMatrixLb1EECI2NS_24__optional_destruct_baseIS1_Lb1EEEIJS1_EEENS_10in_place_tEDpOT_, symObjAddr: 0x9E8, symBinAddr: 0x100021B4C, symSize: 0x34 }
  - { offsetInCU: 0x341E, offset: 0x2CF40, size: 0x8, addend: 0x0, symName: __ZNSt3__127__optional_copy_assign_baseI7GMatrixLb1EECI2NS_24__optional_destruct_baseIS1_Lb1EEEIJS1_EEENS_10in_place_tEDpOT_, symObjAddr: 0xA1C, symBinAddr: 0x100021B80, symSize: 0x34 }
  - { offsetInCU: 0x345C, offset: 0x2CF7E, size: 0x8, addend: 0x0, symName: __ZNSt3__120__optional_move_baseI7GMatrixLb1EECI2NS_24__optional_destruct_baseIS1_Lb1EEEIJS1_EEENS_10in_place_tEDpOT_, symObjAddr: 0xA50, symBinAddr: 0x100021BB4, symSize: 0x34 }
  - { offsetInCU: 0x349A, offset: 0x2CFBC, size: 0x8, addend: 0x0, symName: __ZNSt3__120__optional_copy_baseI7GMatrixLb1EECI2NS_24__optional_destruct_baseIS1_Lb1EEEIJS1_EEENS_10in_place_tEDpOT_, symObjAddr: 0xA84, symBinAddr: 0x100021BE8, symSize: 0x34 }
  - { offsetInCU: 0x34D8, offset: 0x2CFFA, size: 0x8, addend: 0x0, symName: __ZNSt3__123__optional_storage_baseI7GMatrixLb0EECI2NS_24__optional_destruct_baseIS1_Lb1EEEIJS1_EEENS_10in_place_tEDpOT_, symObjAddr: 0xAB8, symBinAddr: 0x100021C1C, symSize: 0x34 }
  - { offsetInCU: 0x3516, offset: 0x2D038, size: 0x8, addend: 0x0, symName: __ZNSt3__124__optional_destruct_baseI7GMatrixLb1EEC2B8ue170006IJS1_EEENS_10in_place_tEDpOT_, symObjAddr: 0xAEC, symBinAddr: 0x100021C50, symSize: 0x34 }
  - { offsetInCU: 0x23D4, offset: 0x2F482, size: 0x8, addend: 0x0, symName: __ZNSt3__13minB8ue170006IfEERKT_S3_S3_, symObjAddr: 0x11C8, symBinAddr: 0x100022D6C, symSize: 0x2C }
  - { offsetInCU: 0x2417, offset: 0x2F4C5, size: 0x8, addend: 0x0, symName: __ZNSt3__13maxB8ue170006IfEERKT_S3_S3_, symObjAddr: 0x11F4, symBinAddr: 0x100022D98, symSize: 0x2C }
  - { offsetInCU: 0x24D0, offset: 0x2F57E, size: 0x8, addend: 0x0, symName: __ZNSt3__127__throw_bad_optional_accessB8ue170006Ev, symObjAddr: 0x4B3C, symBinAddr: 0x100023480, symSize: 0x38 }
  - { offsetInCU: 0x24EB, offset: 0x2F599, size: 0x8, addend: 0x0, symName: __ZNSt3__13minB8ue170006IfNS_6__lessIvvEEEERKT_S5_S5_T0_, symObjAddr: 0x4C1C, symBinAddr: 0x10002354C, symSize: 0x54 }
  - { offsetInCU: 0x2545, offset: 0x2F5F3, size: 0x8, addend: 0x0, symName: __ZNSt3__13maxB8ue170006IfNS_6__lessIvvEEEERKT_S5_S5_T0_, symObjAddr: 0x4CA4, symBinAddr: 0x1000235D4, symSize: 0x54 }
  - { offsetInCU: 0x4505, offset: 0x315B3, size: 0x8, addend: 0x0, symName: __ZN5GPath7addRectERK5GRectNS_9DirectionE, symObjAddr: 0x0, symBinAddr: 0x100021C84, symSize: 0x104 }
  - { offsetInCU: 0x4547, offset: 0x315F5, size: 0x8, addend: 0x0, symName: __ZN5GPath6moveToEff, symObjAddr: 0x104, symBinAddr: 0x100021D88, symSize: 0x44 }
  - { offsetInCU: 0x4587, offset: 0x31635, size: 0x8, addend: 0x0, symName: __ZN5GPath6lineToEff, symObjAddr: 0x148, symBinAddr: 0x100021DCC, symSize: 0x44 }
  - { offsetInCU: 0x45C7, offset: 0x31675, size: 0x8, addend: 0x0, symName: __ZN5GPath10addPolygonEPK6GPointi, symObjAddr: 0x18C, symBinAddr: 0x100021E10, symSize: 0x9C }
  - { offsetInCU: 0x4625, offset: 0x316D3, size: 0x8, addend: 0x0, symName: __ZN5GPath6moveToE6GPoint, symObjAddr: 0x228, symBinAddr: 0x100021EAC, symSize: 0x48 }
  - { offsetInCU: 0x4657, offset: 0x31705, size: 0x8, addend: 0x0, symName: __ZN5GPath6lineToE6GPoint, symObjAddr: 0x270, symBinAddr: 0x100021EF4, symSize: 0x8C }
  - { offsetInCU: 0x4689, offset: 0x31737, size: 0x8, addend: 0x0, symName: __ZN5GPath9addCircleE6GPointfNS_9DirectionE, symObjAddr: 0x2FC, symBinAddr: 0x100021F80, symSize: 0x248 }
  - { offsetInCU: 0x4761, offset: 0x3180F, size: 0x8, addend: 0x0, symName: __ZmlRK7GMatrixS1_, symObjAddr: 0x544, symBinAddr: 0x1000221C8, symSize: 0x2C }
  - { offsetInCU: 0x479C, offset: 0x3184A, size: 0x8, addend: 0x0, symName: __ZNK5GPath6boundsEv, symObjAddr: 0x570, symBinAddr: 0x1000221F4, symSize: 0x9A4 }
  - { offsetInCU: 0x48B1, offset: 0x3195F, size: 0x8, addend: 0x0, symName: __ZNKSt3__16vectorI6GPointNS_9allocatorIS1_EEEixB8ue170006Em, symObjAddr: 0xF4C, symBinAddr: 0x100022BA8, symSize: 0x24 }
  - { offsetInCU: 0x48E7, offset: 0x31995, size: 0x8, addend: 0x0, symName: __ZNRSt3__18optionalIN5GPath4VerbEE5valueB8ue170006Ev, symObjAddr: 0x1028, symBinAddr: 0x100022BCC, symSize: 0x3C }
  - { offsetInCU: 0x490B, offset: 0x319B9, size: 0x8, addend: 0x0, symName: __Z17updateExtremaQuadfPNSt3__16vectorI6GPointNS_9allocatorIS1_EEEES1_S1_S1_, symObjAddr: 0x1064, symBinAddr: 0x100022C08, symSize: 0x9C }
  - { offsetInCU: 0x496A, offset: 0x31A18, size: 0x8, addend: 0x0, symName: __Z4sqrtB8ue170006f, symObjAddr: 0x1100, symBinAddr: 0x100022CA4, symSize: 0x18 }
  - { offsetInCU: 0x4999, offset: 0x31A47, size: 0x8, addend: 0x0, symName: __Z18updateExtremaCubicfPNSt3__16vectorI6GPointNS_9allocatorIS1_EEEES1_S1_S1_S1_, symObjAddr: 0x1118, symBinAddr: 0x100022CBC, symSize: 0xB0 }
  - { offsetInCU: 0x4A07, offset: 0x31AB5, size: 0x8, addend: 0x0, symName: __ZNSt3__16vectorI6GPointNS_9allocatorIS1_EEEixB8ue170006Em, symObjAddr: 0x1220, symBinAddr: 0x100022DC4, symSize: 0x24 }
  - { offsetInCU: 0x4A3D, offset: 0x31AEB, size: 0x8, addend: 0x0, symName: __ZN5GRect4LTRBEffff, symObjAddr: 0x1244, symBinAddr: 0x100022DE8, symSize: 0x4C }
  - { offsetInCU: 0x4A8A, offset: 0x31B38, size: 0x8, addend: 0x0, symName: __ZN5GPath9transformERK7GMatrix, symObjAddr: 0x1290, symBinAddr: 0x100022E34, symSize: 0xB4 }
  - { offsetInCU: 0x4ADA, offset: 0x31B88, size: 0x8, addend: 0x0, symName: __ZNK7GMatrixmlE6GPoint, symObjAddr: 0x1344, symBinAddr: 0x100022EE8, symSize: 0x44 }
  - { offsetInCU: 0x4B0C, offset: 0x31BBA, size: 0x8, addend: 0x0, symName: __ZN5GPath10ChopQuadAtEPK6GPointPS0_f, symObjAddr: 0x1388, symBinAddr: 0x100022F2C, symSize: 0xC8 }
  - { offsetInCU: 0x4B76, offset: 0x31C24, size: 0x8, addend: 0x0, symName: __ZL10computeLinfRK6GPointS1_, symObjAddr: 0x1450, symBinAddr: 0x100022FF4, symSize: 0xA4 }
  - { offsetInCU: 0x4BCC, offset: 0x31C7A, size: 0x8, addend: 0x0, symName: __ZL11computeQuadfRK6GPointS1_S1_, symObjAddr: 0x14F4, symBinAddr: 0x100023098, symSize: 0x10C }
  - { offsetInCU: 0x4C30, offset: 0x31CDE, size: 0x8, addend: 0x0, symName: __ZN5GPath11ChopCubicAtEPK6GPointPS0_f, symObjAddr: 0x1600, symBinAddr: 0x1000231A4, symSize: 0x150 }
  - { offsetInCU: 0x4CC4, offset: 0x31D72, size: 0x8, addend: 0x0, symName: __ZL12computeCubicfRK6GPointS1_S1_S1_, symObjAddr: 0x1750, symBinAddr: 0x1000232F4, symSize: 0x18C }
  - { offsetInCU: 0x4D91, offset: 0x31E3F, size: 0x8, addend: 0x0, symName: __ZNSt19bad_optional_accessC1Ev, symObjAddr: 0x4B88, symBinAddr: 0x1000234B8, symSize: 0x2C }
  - { offsetInCU: 0x4DBC, offset: 0x31E6A, size: 0x8, addend: 0x0, symName: __ZNSt19bad_optional_accessC2Ev, symObjAddr: 0x4BB4, symBinAddr: 0x1000234E4, symSize: 0x44 }
  - { offsetInCU: 0x4DE7, offset: 0x31E95, size: 0x8, addend: 0x0, symName: __ZNSt9exceptionC2B8ue170006Ev, symObjAddr: 0x4BF8, symBinAddr: 0x100023528, symSize: 0x24 }
  - { offsetInCU: 0x4E1A, offset: 0x31EC8, size: 0x8, addend: 0x0, symName: __ZNKSt3__16__lessIvvEclB8ue170006IffEEbRKT_RKT0_, symObjAddr: 0x4C70, symBinAddr: 0x1000235A0, symSize: 0x34 }
  - { offsetInCU: 0x4E6C, offset: 0x31F1A, size: 0x8, addend: 0x0, symName: __ZNK7GMatrix9mapPointsEP6GPointi, symObjAddr: 0x4CF8, symBinAddr: 0x100023628, symSize: 0x38 }
  - { offsetInCU: 0x4EAB, offset: 0x31F59, size: 0x8, addend: 0x0, symName: __Zmlf6GPoint, symObjAddr: 0x4D30, symBinAddr: 0x100023660, symSize: 0x40 }
  - { offsetInCU: 0x4EE6, offset: 0x31F94, size: 0x8, addend: 0x0, symName: __ZNK6GPointplES_, symObjAddr: 0x4D70, symBinAddr: 0x1000236A0, symSize: 0x44 }
  - { offsetInCU: 0x1283, offset: 0x3329E, size: 0x8, addend: 0x0, symName: __ZNSt3__13minB8ue170006IiEERKT_S3_S3_, symObjAddr: 0xCE0, symBinAddr: 0x100024024, symSize: 0x2C }
  - { offsetInCU: 0x12C6, offset: 0x332E1, size: 0x8, addend: 0x0, symName: __ZNSt3__13minB8ue170006IiNS_6__lessIvvEEEERKT_S5_S5_T0_, symObjAddr: 0xD7C, symBinAddr: 0x100024068, symSize: 0x54 }
  - { offsetInCU: 0x34BB, offset: 0x354D6, size: 0x8, addend: 0x0, symName: __ZN14MyBitmapShader8isOpaqueEv, symObjAddr: 0x0, symBinAddr: 0x1000236E4, symSize: 0x2C }
  - { offsetInCU: 0x34E1, offset: 0x354FC, size: 0x8, addend: 0x0, symName: __ZNK7GBitmap8isOpaqueEv, symObjAddr: 0x2C, symBinAddr: 0x100023710, symSize: 0x1C }
  - { offsetInCU: 0x3505, offset: 0x35520, size: 0x8, addend: 0x0, symName: __ZN14MyBitmapShader10setContextERK7GMatrix, symObjAddr: 0x48, symBinAddr: 0x10002372C, symSize: 0xEC }
  - { offsetInCU: 0x3539, offset: 0x35554, size: 0x8, addend: 0x0, symName: __ZNKSt3__123__optional_storage_baseI7GMatrixLb0EE9has_valueB8ue170006Ev, symObjAddr: 0x160, symBinAddr: 0x100023818, symSize: 0x1C }
  - { offsetInCU: 0x355D, offset: 0x35578, size: 0x8, addend: 0x0, symName: __ZNRSt3__18optionalI7GMatrixEdeB8ue170006Ev, symObjAddr: 0x17C, symBinAddr: 0x100023834, symSize: 0x24 }
  - { offsetInCU: 0x3587, offset: 0x355A2, size: 0x8, addend: 0x0, symName: __ZNSt3__18optionalI7GMatrixEaSB8ue170006IS1_vEERS2_OT_, symObjAddr: 0x1A0, symBinAddr: 0x100023858, symSize: 0x70 }
  - { offsetInCU: 0x35C4, offset: 0x355DF, size: 0x8, addend: 0x0, symName: __ZN14MyBitmapShader8shadeRowEiiiPj, symObjAddr: 0x210, symBinAddr: 0x1000238C8, symSize: 0x29C }
  - { offsetInCU: 0x36A2, offset: 0x356BD, size: 0x8, addend: 0x0, symName: __ZN7GMatrixixEi, symObjAddr: 0x4F0, symBinAddr: 0x100023B64, symSize: 0x94 }
  - { offsetInCU: 0x36D4, offset: 0x356EF, size: 0x8, addend: 0x0, symName: __Z19GCreateBitmapShaderRK7GBitmapRK7GMatrix9GTileMode, symObjAddr: 0x6FC, symBinAddr: 0x100023BF8, symSize: 0x7C }
  - { offsetInCU: 0x371C, offset: 0x35737, size: 0x8, addend: 0x0, symName: __ZN14MyBitmapShaderC1ERK7GBitmapRK7GMatrix9GTileMode, symObjAddr: 0x778, symBinAddr: 0x100023C74, symSize: 0x44 }
  - { offsetInCU: 0x376F, offset: 0x3578A, size: 0x8, addend: 0x0, symName: __ZNSt3__110unique_ptrI7GShaderNS_14default_deleteIS1_EEEC1B8ue170006ILb1EvEEPS1_, symObjAddr: 0x7BC, symBinAddr: 0x100023CB8, symSize: 0x34 }
  - { offsetInCU: 0x37B1, offset: 0x357CC, size: 0x8, addend: 0x0, symName: __ZN14MyBitmapShaderD1Ev, symObjAddr: 0x7F0, symBinAddr: 0x100023CEC, symSize: 0x2C }
  - { offsetInCU: 0x37DC, offset: 0x357F7, size: 0x8, addend: 0x0, symName: __ZN14MyBitmapShaderD0Ev, symObjAddr: 0x81C, symBinAddr: 0x100023D18, symSize: 0x30 }
  - { offsetInCU: 0x3807, offset: 0x35822, size: 0x8, addend: 0x0, symName: __ZNRSt3__123__optional_storage_baseI7GMatrixLb0EE5__getB8ue170006Ev, symObjAddr: 0x84C, symBinAddr: 0x100023D48, symSize: 0x14 }
  - { offsetInCU: 0x382B, offset: 0x35846, size: 0x8, addend: 0x0, symName: __ZN14MyBitmapShaderC2ERK7GBitmapRK7GMatrix9GTileMode, symObjAddr: 0x8C8, symBinAddr: 0x100023D5C, symSize: 0xE0 }
  - { offsetInCU: 0x387E, offset: 0x35899, size: 0x8, addend: 0x0, symName: __ZN7GShaderC2Ev, symObjAddr: 0x9A8, symBinAddr: 0x100023E3C, symSize: 0x24 }
  - { offsetInCU: 0x38A9, offset: 0x358C4, size: 0x8, addend: 0x0, symName: __ZN14MyBitmapShader5clampEfi, symObjAddr: 0x9F8, symBinAddr: 0x100023E60, symSize: 0x80 }
  - { offsetInCU: 0x38DA, offset: 0x358F5, size: 0x8, addend: 0x0, symName: __ZN14MyBitmapShader6repeatEfi, symObjAddr: 0xA78, symBinAddr: 0x100023EE0, symSize: 0x70 }
  - { offsetInCU: 0x390B, offset: 0x35926, size: 0x8, addend: 0x0, symName: __ZN14MyBitmapShader6mirrorEfi, symObjAddr: 0xAE8, symBinAddr: 0x100023F50, symSize: 0xB4 }
  - { offsetInCU: 0x393C, offset: 0x35957, size: 0x8, addend: 0x0, symName: __ZN7GShaderD1Ev, symObjAddr: 0xB9C, symBinAddr: 0x100024004, symSize: 0x14 }
  - { offsetInCU: 0x3965, offset: 0x35980, size: 0x8, addend: 0x0, symName: __ZN7GShaderD0Ev, symObjAddr: 0xBB0, symBinAddr: 0x100024018, symSize: 0xC }
  - { offsetInCU: 0x398E, offset: 0x359A9, size: 0x8, addend: 0x0, symName: __ZL11GFloorToIntf, symObjAddr: 0xD0C, symBinAddr: 0x100024050, symSize: 0x18 }
  - { offsetInCU: 0x39C9, offset: 0x359E4, size: 0x8, addend: 0x0, symName: __ZNKSt3__16__lessIvvEclB8ue170006IiiEEbRKT_RKT0_, symObjAddr: 0xDD0, symBinAddr: 0x1000240BC, symSize: 0x34 }
  - { offsetInCU: 0x3A20, offset: 0x35A3B, size: 0x8, addend: 0x0, symName: __ZN14MyBitmapShaderD2Ev, symObjAddr: 0xEE0, symBinAddr: 0x1000240F0, symSize: 0x2C }
  - { offsetInCU: 0x3A4B, offset: 0x35A66, size: 0x8, addend: 0x0, symName: __ZN7GShaderD2Ev, symObjAddr: 0xF0C, symBinAddr: 0x10002411C, symSize: 0x14 }
  - { offsetInCU: 0x3A74, offset: 0x35A8F, size: 0x8, addend: 0x0, symName: __ZNSt3__123__optional_storage_baseI7GMatrixLb0EE11__constructB8ue170006IJS1_EEEvDpOT_, symObjAddr: 0xF20, symBinAddr: 0x100024130, symSize: 0x34 }
  - { offsetInCU: 0x3AB2, offset: 0x35ACD, size: 0x8, addend: 0x0, symName: __ZNSt3__110unique_ptrI7GShaderNS_14default_deleteIS1_EEEC2B8ue170006ILb1EvEEPS1_, symObjAddr: 0xF54, symBinAddr: 0x100024164, symSize: 0x44 }
  - { offsetInCU: 0x3AFA, offset: 0x35B15, size: 0x8, addend: 0x0, symName: __ZNSt3__117__compressed_pairIP7GShaderNS_14default_deleteIS1_EEEC1B8ue170006IRS2_NS_16__value_init_tagEEEOT_OT0_, symObjAddr: 0xF98, symBinAddr: 0x1000241A8, symSize: 0x3C }
  - { offsetInCU: 0x3B51, offset: 0x35B6C, size: 0x8, addend: 0x0, symName: __ZNSt3__117__compressed_pairIP7GShaderNS_14default_deleteIS1_EEEC2B8ue170006IRS2_NS_16__value_init_tagEEEOT_OT0_, symObjAddr: 0xFE0, symBinAddr: 0x1000241E4, symSize: 0x40 }
  - { offsetInCU: 0x3BA8, offset: 0x35BC3, size: 0x8, addend: 0x0, symName: __ZNSt3__122__compressed_pair_elemIP7GShaderLi0ELb0EEC2B8ue170006IRS2_vEEOT_, symObjAddr: 0x1020, symBinAddr: 0x100024224, symSize: 0x24 }
  - { offsetInCU: 0x3BE9, offset: 0x35C04, size: 0x8, addend: 0x0, symName: __ZNSt3__122__compressed_pair_elemINS_14default_deleteI7GShaderEELi1ELb1EEC2B8ue170006ENS_16__value_init_tagE, symObjAddr: 0x1044, symBinAddr: 0x100024248, symSize: 0x14 }
  - { offsetInCU: 0x52, offset: 0x35CAD, size: 0x8, addend: 0x0, symName: __ZL13blendProcsOne, symObjAddr: 0x12BD0, symBinAddr: 0x100040788, symSize: 0x0 }
  - { offsetInCU: 0xAE, offset: 0x35D09, size: 0x8, addend: 0x0, symName: __ZL10blendProcs, symObjAddr: 0x12C30, symBinAddr: 0x1000407E8, symSize: 0x0 }
  - { offsetInCU: 0xC9, offset: 0x35D24, size: 0x8, addend: 0x0, symName: __ZL17blendRowProcsZero, symObjAddr: 0x12C90, symBinAddr: 0x100040848, symSize: 0x0 }
  - { offsetInCU: 0x14A, offset: 0x35DA5, size: 0x8, addend: 0x0, symName: __ZL16blendRowProcsOne, symObjAddr: 0x12CF0, symBinAddr: 0x1000408A8, symSize: 0x0 }
  - { offsetInCU: 0x165, offset: 0x35DC0, size: 0x8, addend: 0x0, symName: __ZL13blendRowProcs, symObjAddr: 0x12D50, symBinAddr: 0x100040908, symSize: 0x0 }
  - { offsetInCU: 0x72C1, offset: 0x3CF1C, size: 0x8, addend: 0x0, symName: __ZNSt3__111__introsortINS_17_ClassicAlgPolicyERPFKbP4EdgeS4_EPS4_Lb0EEEvT1_S9_T0_NS_15iterator_traitsIS9_E15difference_typeEb, symObjAddr: 0xC3AC, symBinAddr: 0x10002DB24, symSize: 0x448 }
  - { offsetInCU: 0x7418, offset: 0x3D073, size: 0x8, addend: 0x0, symName: __ZNSt3__126__insertion_sort_unguardedB8ue170006INS_17_ClassicAlgPolicyERPFKbP4EdgeS4_EPS4_EEvT1_S9_T0_, symObjAddr: 0xCA8C, symBinAddr: 0x10002E204, symSize: 0x134 }
  - { offsetInCU: 0x7508, offset: 0x3D163, size: 0x8, addend: 0x0, symName: __ZNSt3__111__sift_downB8ue170006INS_17_ClassicAlgPolicyERPFKbP4EdgeS4_EPS4_EEvT1_OT0_NS_15iterator_traitsIS9_E15difference_typeES9_, symObjAddr: 0xDD38, symBinAddr: 0x10002F4B0, symSize: 0x230 }
  - { offsetInCU: 0x75B5, offset: 0x3D210, size: 0x8, addend: 0x0, symName: __ZNSt3__117__floyd_sift_downB8ue170006INS_17_ClassicAlgPolicyERPFKbP4EdgeS4_EPS4_EET1_S9_OT0_NS_15iterator_traitsIS9_E15difference_typeE, symObjAddr: 0xE104, symBinAddr: 0x10002F87C, symSize: 0x108 }
  - { offsetInCU: 0x764D, offset: 0x3D2A8, size: 0x8, addend: 0x0, symName: __ZNSt3__131__partition_with_equals_on_leftB8ue170006INS_17_ClassicAlgPolicyEPP4EdgeRPFKbS3_S3_EEET0_S9_S9_T1_, symObjAddr: 0xCE08, symBinAddr: 0x10002E580, symSize: 0x238 }
  - { offsetInCU: 0x7708, offset: 0x3D363, size: 0x8, addend: 0x0, symName: __ZNSt3__118__bitset_partitionB8ue170006INS_17_ClassicAlgPolicyEPP4EdgeRPFKbS3_S3_EEENS_4pairIT0_bEESA_SA_T1_, symObjAddr: 0xD040, symBinAddr: 0x10002E7B8, symSize: 0x340 }
  - { offsetInCU: 0x7801, offset: 0x3D45C, size: 0x8, addend: 0x0, symName: __ZNSt3__124__swap_bitmap_pos_withinB8ue170006INS_17_ClassicAlgPolicyEPP4EdgeEEvRT0_S6_RyS7_, symObjAddr: 0xE89C, symBinAddr: 0x100030014, symSize: 0x1E0 }
  - { offsetInCU: 0x78CE, offset: 0x3D529, size: 0x8, addend: 0x0, symName: __ZNSt3__132__partition_with_equals_on_rightB8ue170006INS_17_ClassicAlgPolicyEPP4EdgeRPFKbS3_S3_EEENS_4pairIT0_bEESA_SA_T1_, symObjAddr: 0xD380, symBinAddr: 0x10002EAF8, symSize: 0x244 }
  - { offsetInCU: 0x7998, offset: 0x3D5F3, size: 0x8, addend: 0x0, symName: __ZNSt3__127__insertion_sort_incompleteB8ue170006INS_17_ClassicAlgPolicyERPFKbP4EdgeS4_EPS4_EEbT1_S9_T0_, symObjAddr: 0xD5C4, symBinAddr: 0x10002ED3C, symSize: 0x324 }
  - { offsetInCU: 0x7C9F, offset: 0x3D8FA, size: 0x8, addend: 0x0, symName: '__ZNSt3__111__introsortINS_17_ClassicAlgPolicyERZN8MyCanvas8drawPathERK5GPathRK6GPaintE3$_0PP4EdgeLb0EEEvT1_SE_T0_NS_15iterator_traitsISE_E15difference_typeEb', symObjAddr: 0x102F8, symBinAddr: 0x100031A70, symSize: 0x440 }
  - { offsetInCU: 0x7DCB, offset: 0x3DA26, size: 0x8, addend: 0x0, symName: '__ZNSt3__126__insertion_sort_unguardedB8ue170006INS_17_ClassicAlgPolicyERZN8MyCanvas8drawPathERK5GPathRK6GPaintE3$_0PP4EdgeEEvT1_SE_T0_', symObjAddr: 0x109B4, symBinAddr: 0x10003212C, symSize: 0x12C }
  - { offsetInCU: 0x7EBC, offset: 0x3DB17, size: 0x8, addend: 0x0, symName: '__ZNSt3__111__sift_downB8ue170006INS_17_ClassicAlgPolicyERZN8MyCanvas8drawPathERK5GPathRK6GPaintE3$_0PP4EdgeEEvT1_OT0_NS_15iterator_traitsISE_E15difference_typeESE_', symObjAddr: 0x11B8C, symBinAddr: 0x100033304, symSize: 0x220 }
  - { offsetInCU: 0x7F69, offset: 0x3DBC4, size: 0x8, addend: 0x0, symName: '__ZNSt3__117__floyd_sift_downB8ue170006INS_17_ClassicAlgPolicyERZN8MyCanvas8drawPathERK5GPathRK6GPaintE3$_0PP4EdgeEET1_SE_OT0_NS_15iterator_traitsISE_E15difference_typeE', symObjAddr: 0x11F48, symBinAddr: 0x1000336C0, symSize: 0x104 }
  - { offsetInCU: 0x8001, offset: 0x3DC5C, size: 0x8, addend: 0x0, symName: '__ZNSt3__131__partition_with_equals_on_leftB8ue170006INS_17_ClassicAlgPolicyEPP4EdgeRZN8MyCanvas8drawPathERK5GPathRK6GPaintE3$_0EET0_SE_SE_T1_', symObjAddr: 0x10CE0, symBinAddr: 0x100032458, symSize: 0x220 }
  - { offsetInCU: 0x80BD, offset: 0x3DD18, size: 0x8, addend: 0x0, symName: '__ZNSt3__118__bitset_partitionB8ue170006INS_17_ClassicAlgPolicyEPP4EdgeRZN8MyCanvas8drawPathERK5GPathRK6GPaintE3$_0EENS_4pairIT0_bEESF_SF_T1_', symObjAddr: 0x10F00, symBinAddr: 0x100032678, symSize: 0x330 }
  - { offsetInCU: 0x81B7, offset: 0x3DE12, size: 0x8, addend: 0x0, symName: '__ZNSt3__132__partition_with_equals_on_rightB8ue170006INS_17_ClassicAlgPolicyEPP4EdgeRZN8MyCanvas8drawPathERK5GPathRK6GPaintE3$_0EENS_4pairIT0_bEESF_SF_T1_', symObjAddr: 0x11230, symBinAddr: 0x1000329A8, symSize: 0x230 }
  - { offsetInCU: 0x8282, offset: 0x3DEDD, size: 0x8, addend: 0x0, symName: '__ZNSt3__127__insertion_sort_incompleteB8ue170006INS_17_ClassicAlgPolicyERZN8MyCanvas8drawPathERK5GPathRK6GPaintE3$_0PP4EdgeEEbT1_SE_T0_', symObjAddr: 0x11460, symBinAddr: 0x100032BD8, symSize: 0x318 }
  - { offsetInCU: 0x8E8A, offset: 0x3EAE5, size: 0x8, addend: 0x0, symName: __ZNSt3__14sortB8ue170006IPP4EdgePFKbS2_S2_EEEvT_S7_T0_, symObjAddr: 0x19D4, symBinAddr: 0x100025AB8, symSize: 0x38 }
  - { offsetInCU: 0x8EE4, offset: 0x3EB3F, size: 0x8, addend: 0x0, symName: __ZNSt3__14swapB8ue170006IiEENS_9enable_ifIXaasr21is_move_constructibleIT_EE5valuesr18is_move_assignableIS2_EE5valueEvE4typeERS2_S5_, symObjAddr: 0x1A84, symBinAddr: 0x100025B68, symSize: 0x3C }
  - { offsetInCU: 0x8F35, offset: 0x3EB90, size: 0x8, addend: 0x0, symName: __ZNSt3__13maxB8ue170006IiEERKT_S3_S3_, symObjAddr: 0x1B28, symBinAddr: 0x100025C0C, symSize: 0x2C }
  - { offsetInCU: 0x8F78, offset: 0x3EBD3, size: 0x8, addend: 0x0, symName: __ZNSt3__14swapB8ue170006I6GPointEENS_9enable_ifIXaasr21is_move_constructibleIT_EE5valuesr18is_move_assignableIS3_EE5valueEvE4typeERS3_S6_, symObjAddr: 0x1C78, symBinAddr: 0x100025D5C, symSize: 0x3C }
  - { offsetInCU: 0x8FC9, offset: 0x3EC24, size: 0x8, addend: 0x0, symName: __ZNSt3__14swapB8ue170006IP4EdgeEENS_9enable_ifIXaasr21is_move_constructibleIT_EE5valuesr18is_move_assignableIS4_EE5valueEvE4typeERS4_S7_, symObjAddr: 0x3050, symBinAddr: 0x100026FBC, symSize: 0x3C }
  - { offsetInCU: 0x901A, offset: 0x3EC75, size: 0x8, addend: 0x0, symName: '__ZNSt3__14sortB8ue170006IPP4EdgeZN8MyCanvas8drawPathERK5GPathRK6GPaintE3$_0EEvT_SC_T0_', symObjAddr: 0x308C, symBinAddr: 0x100026FF8, symSize: 0x34 }
  - { offsetInCU: 0x9075, offset: 0x3ECD0, size: 0x8, addend: 0x0, symName: __ZNSt3__13maxB8ue170006IiNS_6__lessIvvEEEERKT_S5_S5_T0_, symObjAddr: 0x6994, symBinAddr: 0x10002A8A4, symSize: 0x54 }
  - { offsetInCU: 0x90CF, offset: 0x3ED2A, size: 0x8, addend: 0x0, symName: __ZNSt3__122__make_exception_guardB8ue170006INS_6vectorI6GPointNS_9allocatorIS2_EEE16__destroy_vectorEEENS_28__exception_guard_exceptionsIT_EES8_, symObjAddr: 0x6F10, symBinAddr: 0x10002AC14, symSize: 0x40 }
  - { offsetInCU: 0x9104, offset: 0x3ED5F, size: 0x8, addend: 0x0, symName: __ZNSt3__122__make_exception_guardB8ue170006INS_6vectorIN5GPath4VerbENS_9allocatorIS3_EEE16__destroy_vectorEEENS_28__exception_guard_exceptionsIT_EES9_, symObjAddr: 0x8570, symBinAddr: 0x10002AF38, symSize: 0x40 }
  - { offsetInCU: 0x9139, offset: 0x3ED94, size: 0x8, addend: 0x0, symName: __ZNSt3__112__to_addressB8ue170006I7GMatrixEEPT_S3_, symObjAddr: 0xA2A4, symBinAddr: 0x10002BA9C, symSize: 0x14 }
  - { offsetInCU: 0x916E, offset: 0x3EDC9, size: 0x8, addend: 0x0, symName: __ZNSt3__119__allocate_at_leastB8ue170006INS_9allocatorI7GMatrixEEEENS_19__allocation_resultINS_16allocator_traitsIT_E7pointerEEERS6_m, symObjAddr: 0xA968, symBinAddr: 0x10002C0E0, symSize: 0x40 }
  - { offsetInCU: 0x91B1, offset: 0x3EE0C, size: 0x8, addend: 0x0, symName: __ZNSt3__142__uninitialized_allocator_move_if_noexceptB8ue170006INS_9allocatorI7GMatrixEENS_16reverse_iteratorIPS2_EES6_S2_vEET1_RT_T0_SA_S7_, symObjAddr: 0xABF4, symBinAddr: 0x10002C36C, symSize: 0x78 }
  - { offsetInCU: 0x922E, offset: 0x3EE89, size: 0x8, addend: 0x0, symName: __ZNSt3__14swapB8ue170006IP7GMatrixEENS_9enable_ifIXaasr21is_move_constructibleIT_EE5valuesr18is_move_assignableIS4_EE5valueEvE4typeERS4_S7_, symObjAddr: 0xACB8, symBinAddr: 0x10002C430, symSize: 0x3C }
  - { offsetInCU: 0x927F, offset: 0x3EEDA, size: 0x8, addend: 0x0, symName: __ZNSt3__14moveB8ue170006INS_16reverse_iteratorIP7GMatrixEES4_EET0_T_S6_S5_, symObjAddr: 0xAE04, symBinAddr: 0x10002C57C, symSize: 0x78 }
  - { offsetInCU: 0x92D9, offset: 0x3EF34, size: 0x8, addend: 0x0, symName: __ZNSt3__16__moveB8ue170006INS_17_ClassicAlgPolicyENS_16reverse_iteratorIP7GMatrixEES5_S5_EENS_4pairIT0_T2_EES7_T1_S8_, symObjAddr: 0xAE7C, symBinAddr: 0x10002C5F4, symSize: 0x64 }
  - { offsetInCU: 0x9345, offset: 0x3EFA0, size: 0x8, addend: 0x0, symName: __ZNSt3__123__dispatch_copy_or_moveB8ue170006INS_17_ClassicAlgPolicyENS_11__move_loopIS1_EENS_14__move_trivialENS_16reverse_iteratorIP7GMatrixEES8_S8_EENS_4pairIT2_T4_EESA_T3_SB_, symObjAddr: 0xAEE0, symBinAddr: 0x10002C658, symSize: 0x64 }
  - { offsetInCU: 0x93C3, offset: 0x3F01E, size: 0x8, addend: 0x0, symName: __ZNSt3__121__unwrap_and_dispatchB8ue170006INS_10__overloadINS_11__move_loopINS_17_ClassicAlgPolicyEEENS_14__move_trivialEEENS_16reverse_iteratorIP7GMatrixEESA_SA_Li0EEENS_4pairIT0_T2_EESC_T1_SD_, symObjAddr: 0xAF44, symBinAddr: 0x10002C6BC, symSize: 0x12C }
  - { offsetInCU: 0x9453, offset: 0x3F0AE, size: 0x8, addend: 0x0, symName: __ZNSt3__114__unwrap_rangeB8ue170006INS_16reverse_iteratorIP7GMatrixEES4_EENS_4pairIT0_S6_EET_S8_, symObjAddr: 0xB070, symBinAddr: 0x10002C7E8, symSize: 0x84 }
  - { offsetInCU: 0x9604, offset: 0x3F25F, size: 0x8, addend: 0x0, symName: __ZNSt3__113__unwrap_iterB8ue170006INS_16reverse_iteratorIP7GMatrixEENS_18__unwrap_iter_implIS4_Lb0EEELi0EEEDTclsrT0_8__unwrapclsr3stdE7declvalIT_EEEES8_, symObjAddr: 0xB19C, symBinAddr: 0x10002C914, symSize: 0x44 }
  - { offsetInCU: 0x9648, offset: 0x3F2A3, size: 0x8, addend: 0x0, symName: __ZNSt3__19make_pairB8ue170006INS_16reverse_iteratorIP7GMatrixEES4_EENS_4pairINS_18__unwrap_ref_decayIT_E4typeENS6_IT0_E4typeEEEOS7_OSA_, symObjAddr: 0xB1E0, symBinAddr: 0x10002C958, symSize: 0x38 }
  - { offsetInCU: 0x9697, offset: 0x3F2F2, size: 0x8, addend: 0x0, symName: __ZNSt3__114__rewrap_rangeB8ue170006INS_16reverse_iteratorIP7GMatrixEES4_EET_S5_T0_, symObjAddr: 0xB218, symBinAddr: 0x10002C990, symSize: 0x5C }
  - { offsetInCU: 0x96E3, offset: 0x3F33E, size: 0x8, addend: 0x0, symName: __ZNSt3__113__rewrap_iterB8ue170006INS_16reverse_iteratorIP7GMatrixEES4_NS_18__unwrap_iter_implIS4_Lb0EEEEET_S7_T0_, symObjAddr: 0xB274, symBinAddr: 0x10002C9EC, symSize: 0x74 }
  - { offsetInCU: 0x9738, offset: 0x3F393, size: 0x8, addend: 0x0, symName: __ZNSt3__1neB8ue170006IP7GMatrixS2_EEbRKNS_16reverse_iteratorIT_EERKNS3_IT0_EE, symObjAddr: 0xB2E8, symBinAddr: 0x10002CA60, symSize: 0x48 }
  - { offsetInCU: 0x9937, offset: 0x3F592, size: 0x8, addend: 0x0, symName: __ZNSt3__118__constexpr_strlenB8ue170006EPKc, symObjAddr: 0xBCD0, symBinAddr: 0x10002D448, symSize: 0x24 }
  - { offsetInCU: 0x9963, offset: 0x3F5BE, size: 0x8, addend: 0x0, symName: __ZNSt3__120__throw_out_of_rangeB8ue170006EPKc, symObjAddr: 0xC148, symBinAddr: 0x10002D8C0, symSize: 0x64 }
  - { offsetInCU: 0x998D, offset: 0x3F5E8, size: 0x8, addend: 0x0, symName: __ZNSt3__111__sort_implB8ue170006INS_17_ClassicAlgPolicyEPP4EdgePFKbS3_S3_EEEvT0_S8_RT1_, symObjAddr: 0xC22C, symBinAddr: 0x10002D9A4, symSize: 0x78 }
  - { offsetInCU: 0x99F0, offset: 0x3F64B, size: 0x8, addend: 0x0, symName: __ZNSt3__123__debug_randomize_rangeB8ue170006INS_17_ClassicAlgPolicyEPP4EdgeS4_EEvT0_T1_, symObjAddr: 0xC2A4, symBinAddr: 0x10002DA1C, symSize: 0x14 }
  - { offsetInCU: 0x9A41, offset: 0x3F69C, size: 0x8, addend: 0x0, symName: __ZNSt3__115__sort_dispatchB8ue170006INS_17_ClassicAlgPolicyEPP4EdgePFKbS3_S3_EEEvT0_S8_RT1_, symObjAddr: 0xC2B8, symBinAddr: 0x10002DA30, symSize: 0x64 }
  - { offsetInCU: 0x9ABF, offset: 0x3F71A, size: 0x8, addend: 0x0, symName: __ZNSt3__113__unwrap_iterB8ue170006IPP4EdgeNS_18__unwrap_iter_implIS3_Lb1EEELi0EEEDTclsrT0_8__unwrapclsr3stdE7declvalIT_EEEES7_, symObjAddr: 0xC31C, symBinAddr: 0x10002DA94, symSize: 0x24 }
  - { offsetInCU: 0x9B03, offset: 0x3F75E, size: 0x8, addend: 0x0, symName: __ZNSt3__135__check_strict_weak_ordering_sortedB8ue170006IPP4EdgePFKbS2_S2_EEEvT_S7_RT0_, symObjAddr: 0xC340, symBinAddr: 0x10002DAB8, symSize: 0x18 }
  - { offsetInCU: 0x9B59, offset: 0x3F7B4, size: 0x8, addend: 0x0, symName: __ZNSt3__17__log2iB8ue170006IlEET_S1_, symObjAddr: 0xC358, symBinAddr: 0x10002DAD0, symSize: 0x54 }
  - { offsetInCU: 0x9B90, offset: 0x3F7EB, size: 0x8, addend: 0x0, symName: __ZNSt3__112__libcpp_clzB8ue170006Em, symObjAddr: 0xC80C, symBinAddr: 0x10002DF84, symSize: 0x1C }
  - { offsetInCU: 0x9BBC, offset: 0x3F817, size: 0x8, addend: 0x0, symName: __ZNSt3__124__sort3_maybe_branchlessB8ue170006INS_17_ClassicAlgPolicyERPFKbP4EdgeS4_EPS4_EENS_9enable_ifIXntsr21__use_branchless_sortIT0_T1_EE5valueEvE4typeESB_SB_SB_SA_, symObjAddr: 0xC85C, symBinAddr: 0x10002DFD4, symSize: 0x3C }
  - { offsetInCU: 0x9C2D, offset: 0x3F888, size: 0x8, addend: 0x0, symName: __ZNSt3__124__sort4_maybe_branchlessB8ue170006INS_17_ClassicAlgPolicyERPFKbP4EdgeS4_EPS4_EENS_9enable_ifIXntsr21__use_branchless_sortIT0_T1_EE5valueEvE4typeESB_SB_SB_SB_SA_, symObjAddr: 0xC898, symBinAddr: 0x10002E010, symSize: 0x44 }
  - { offsetInCU: 0x9CAC, offset: 0x3F907, size: 0x8, addend: 0x0, symName: __ZNSt3__124__sort5_maybe_branchlessB8ue170006INS_17_ClassicAlgPolicyERPFKbP4EdgeS4_EPS4_EENS_9enable_ifIXntsr21__use_branchless_sortIT0_T1_EE5valueEvE4typeESB_SB_SB_SB_SB_SA_, symObjAddr: 0xC8DC, symBinAddr: 0x10002E054, symSize: 0x4C }
  - { offsetInCU: 0x9D39, offset: 0x3F994, size: 0x8, addend: 0x0, symName: __ZNSt3__116__insertion_sortB8ue170006INS_17_ClassicAlgPolicyERPFKbP4EdgeS4_EPS4_EEvT1_S9_T0_, symObjAddr: 0xC928, symBinAddr: 0x10002E0A0, symSize: 0x164 }
  - { offsetInCU: 0x9DFC, offset: 0x3FA57, size: 0x8, addend: 0x0, symName: __ZNSt3__114__partial_sortB8ue170006INS_17_ClassicAlgPolicyERPFKbP4EdgeS4_EPS4_S8_EET1_S9_S9_T2_RT0_, symObjAddr: 0xCBC0, symBinAddr: 0x10002E338, symSize: 0x94 }
  - { offsetInCU: 0x9E84, offset: 0x3FADF, size: 0x8, addend: 0x0, symName: __ZNSt3__17__sort3B8ue170006INS_17_ClassicAlgPolicyERPFKbP4EdgeS4_EPS4_EEjT1_S9_S9_T0_, symObjAddr: 0xCC54, symBinAddr: 0x10002E3CC, symSize: 0x180 }
  - { offsetInCU: 0x9F03, offset: 0x3FB5E, size: 0x8, addend: 0x0, symName: __ZNSt3__19iter_swapB8ue170006IPP4EdgeS3_EEvT_T0_, symObjAddr: 0xD900, symBinAddr: 0x10002F078, symSize: 0x2C }
  - { offsetInCU: 0x9F4B, offset: 0x3FBA6, size: 0x8, addend: 0x0, symName: __ZNSt3__17__sort4B8ue170006INS_17_ClassicAlgPolicyERPFKbP4EdgeS4_EPS4_EEvT1_S9_S9_S9_T0_, symObjAddr: 0xD92C, symBinAddr: 0x10002F0A4, symSize: 0xDC }
  - { offsetInCU: 0x9FC6, offset: 0x3FC21, size: 0x8, addend: 0x0, symName: __ZNSt3__17__sort5B8ue170006INS_17_ClassicAlgPolicyERPFKbP4EdgeS4_EPS4_EEvT1_S9_S9_S9_S9_T0_, symObjAddr: 0xDA08, symBinAddr: 0x10002F180, symSize: 0x118 }
  - { offsetInCU: 0xA073, offset: 0x3FCCE, size: 0x8, addend: 0x0, symName: __ZNSt3__119__partial_sort_implB8ue170006INS_17_ClassicAlgPolicyERPFKbP4EdgeS4_EPS4_S8_EET1_S9_S9_T2_OT0_, symObjAddr: 0xDB64, symBinAddr: 0x10002F2DC, symSize: 0x11C }
  - { offsetInCU: 0xA109, offset: 0x3FD64, size: 0x8, addend: 0x0, symName: __ZNSt3__111__make_heapB8ue170006INS_17_ClassicAlgPolicyERPFKbP4EdgeS4_EPS4_EEvT1_S9_OT0_, symObjAddr: 0xDC80, symBinAddr: 0x10002F3F8, symSize: 0xB8 }
  - { offsetInCU: 0xA1AB, offset: 0x3FE06, size: 0x8, addend: 0x0, symName: __ZNSt3__111__sort_heapB8ue170006INS_17_ClassicAlgPolicyERPFKbP4EdgeS4_EPS4_EEvT1_S9_OT0_, symObjAddr: 0xDF68, symBinAddr: 0x10002F6E0, symSize: 0xA8 }
  - { offsetInCU: 0xA24D, offset: 0x3FEA8, size: 0x8, addend: 0x0, symName: __ZNSt3__110__pop_heapB8ue170006INS_17_ClassicAlgPolicyEPFKbP4EdgeS4_EPS4_EEvT1_S8_RT0_NS_15iterator_traitsIS8_E15difference_typeE, symObjAddr: 0xE010, symBinAddr: 0x10002F788, symSize: 0xF4 }
  - { offsetInCU: 0xA2FD, offset: 0x3FF58, size: 0x8, addend: 0x0, symName: __ZNSt3__19__sift_upB8ue170006INS_17_ClassicAlgPolicyERPFKbP4EdgeS4_EPS4_EEvT1_S9_OT0_NS_15iterator_traitsIS9_E15difference_typeE, symObjAddr: 0xE20C, symBinAddr: 0x10002F984, symSize: 0x130 }
  - { offsetInCU: 0xA3AD, offset: 0x40008, size: 0x8, addend: 0x0, symName: __ZNSt3__122__populate_left_bitsetB8ue170006IRPFKbP4EdgeS3_EPS3_S3_EEvT0_T_RT1_Ry, symObjAddr: 0xE33C, symBinAddr: 0x10002FAB4, symSize: 0xB4 }
  - { offsetInCU: 0xA468, offset: 0x400C3, size: 0x8, addend: 0x0, symName: __ZNSt3__123__populate_right_bitsetB8ue170006IRPFKbP4EdgeS3_EPS3_S3_EEvT0_T_RT1_Ry, symObjAddr: 0xE3F0, symBinAddr: 0x10002FB68, symSize: 0xAC }
  - { offsetInCU: 0xA523, offset: 0x4017E, size: 0x8, addend: 0x0, symName: __ZNSt3__117__swap_bitmap_posB8ue170006INS_17_ClassicAlgPolicyEPP4EdgeEEvT0_S5_RyS6_, symObjAddr: 0xE49C, symBinAddr: 0x10002FC14, symSize: 0x100 }
  - { offsetInCU: 0xA5C4, offset: 0x4021F, size: 0x8, addend: 0x0, symName: __ZNSt3__133__bitset_partition_partial_blocksB8ue170006INS_17_ClassicAlgPolicyERPFKbP4EdgeS4_EPS4_S4_EEvRT1_SA_T0_RT2_RySE_, symObjAddr: 0xE59C, symBinAddr: 0x10002FD14, symSize: 0x300 }
  - { offsetInCU: 0xA745, offset: 0x403A0, size: 0x8, addend: 0x0, symName: __ZNSt3__19make_pairB8ue170006IRPP4EdgeRbEENS_4pairINS_18__unwrap_ref_decayIT_E4typeENS7_IT0_E4typeEEEOS8_OSB_, symObjAddr: 0xEA7C, symBinAddr: 0x1000301F4, symSize: 0x38 }
  - { offsetInCU: 0xA794, offset: 0x403EF, size: 0x8, addend: 0x0, symName: __ZNSt3__112__libcpp_ctzB8ue170006Ey, symObjAddr: 0xEAB4, symBinAddr: 0x10003022C, symSize: 0x20 }
  - { offsetInCU: 0xA7C0, offset: 0x4041B, size: 0x8, addend: 0x0, symName: __ZNSt3__113__libcpp_blsrB8ue170006Ey, symObjAddr: 0xEAD4, symBinAddr: 0x10003024C, symSize: 0x2C }
  - { offsetInCU: 0xA7EC, offset: 0x40447, size: 0x8, addend: 0x0, symName: __ZNSt3__112__libcpp_clzB8ue170006Ey, symObjAddr: 0xEB34, symBinAddr: 0x1000302AC, symSize: 0x1C }
  - { offsetInCU: 0xA93F, offset: 0x4059A, size: 0x8, addend: 0x0, symName: __ZNSt3__112__to_addressB8ue170006IP4EdgeEEPT_S4_, symObjAddr: 0xEBE8, symBinAddr: 0x100030360, symSize: 0x14 }
  - { offsetInCU: 0xA974, offset: 0x405CF, size: 0x8, addend: 0x0, symName: __ZNSt3__112__to_addressB8ue170006I4EdgeEEPT_S3_, symObjAddr: 0xEE5C, symBinAddr: 0x1000305D4, symSize: 0x14 }
  - { offsetInCU: 0xA9A9, offset: 0x40604, size: 0x8, addend: 0x0, symName: __ZNSt3__119__allocate_at_leastB8ue170006INS_9allocatorI4EdgeEEEENS_19__allocation_resultINS_16allocator_traitsIT_E7pointerEEERS6_m, symObjAddr: 0xF478, symBinAddr: 0x100030BF0, symSize: 0x40 }
  - { offsetInCU: 0xA9EC, offset: 0x40647, size: 0x8, addend: 0x0, symName: __ZNSt3__142__uninitialized_allocator_move_if_noexceptB8ue170006INS_9allocatorI4EdgeEENS_16reverse_iteratorIPS2_EES6_S2_vEET1_RT_T0_SA_S7_, symObjAddr: 0xF704, symBinAddr: 0x100030E7C, symSize: 0x78 }
  - { offsetInCU: 0xAA69, offset: 0x406C4, size: 0x8, addend: 0x0, symName: __ZNSt3__14moveB8ue170006INS_16reverse_iteratorIP4EdgeEES4_EET0_T_S6_S5_, symObjAddr: 0xF8D8, symBinAddr: 0x100031050, symSize: 0x78 }
  - { offsetInCU: 0xAAC3, offset: 0x4071E, size: 0x8, addend: 0x0, symName: __ZNSt3__16__moveB8ue170006INS_17_ClassicAlgPolicyENS_16reverse_iteratorIP4EdgeEES5_S5_EENS_4pairIT0_T2_EES7_T1_S8_, symObjAddr: 0xF950, symBinAddr: 0x1000310C8, symSize: 0x64 }
  - { offsetInCU: 0xAB2F, offset: 0x4078A, size: 0x8, addend: 0x0, symName: __ZNSt3__123__dispatch_copy_or_moveB8ue170006INS_17_ClassicAlgPolicyENS_11__move_loopIS1_EENS_14__move_trivialENS_16reverse_iteratorIP4EdgeEES8_S8_EENS_4pairIT2_T4_EESA_T3_SB_, symObjAddr: 0xF9B4, symBinAddr: 0x10003112C, symSize: 0x64 }
  - { offsetInCU: 0xABAD, offset: 0x40808, size: 0x8, addend: 0x0, symName: __ZNSt3__121__unwrap_and_dispatchB8ue170006INS_10__overloadINS_11__move_loopINS_17_ClassicAlgPolicyEEENS_14__move_trivialEEENS_16reverse_iteratorIP4EdgeEESA_SA_Li0EEENS_4pairIT0_T2_EESC_T1_SD_, symObjAddr: 0xFA18, symBinAddr: 0x100031190, symSize: 0x12C }
  - { offsetInCU: 0xAC3D, offset: 0x40898, size: 0x8, addend: 0x0, symName: __ZNSt3__114__unwrap_rangeB8ue170006INS_16reverse_iteratorIP4EdgeEES4_EENS_4pairIT0_S6_EET_S8_, symObjAddr: 0xFB44, symBinAddr: 0x1000312BC, symSize: 0x84 }
  - { offsetInCU: 0xAD5D, offset: 0x409B8, size: 0x8, addend: 0x0, symName: __ZNSt3__113__unwrap_iterB8ue170006INS_16reverse_iteratorIP4EdgeEENS_18__unwrap_iter_implIS4_Lb0EEELi0EEEDTclsrT0_8__unwrapclsr3stdE7declvalIT_EEEES8_, symObjAddr: 0xFC70, symBinAddr: 0x1000313E8, symSize: 0x44 }
  - { offsetInCU: 0xADA1, offset: 0x409FC, size: 0x8, addend: 0x0, symName: __ZNSt3__19make_pairB8ue170006INS_16reverse_iteratorIP4EdgeEES4_EENS_4pairINS_18__unwrap_ref_decayIT_E4typeENS6_IT0_E4typeEEEOS7_OSA_, symObjAddr: 0xFCB4, symBinAddr: 0x10003142C, symSize: 0x38 }
  - { offsetInCU: 0xADF0, offset: 0x40A4B, size: 0x8, addend: 0x0, symName: __ZNSt3__114__rewrap_rangeB8ue170006INS_16reverse_iteratorIP4EdgeEES4_EET_S5_T0_, symObjAddr: 0xFCEC, symBinAddr: 0x100031464, symSize: 0x5C }
  - { offsetInCU: 0xAE3C, offset: 0x40A97, size: 0x8, addend: 0x0, symName: __ZNSt3__113__rewrap_iterB8ue170006INS_16reverse_iteratorIP4EdgeEES4_NS_18__unwrap_iter_implIS4_Lb0EEEEET_S7_T0_, symObjAddr: 0xFD48, symBinAddr: 0x1000314C0, symSize: 0x74 }
  - { offsetInCU: 0xAE91, offset: 0x40AEC, size: 0x8, addend: 0x0, symName: __ZNSt3__1neB8ue170006IP4EdgeS2_EEbRKNS_16reverse_iteratorIT_EERKNS3_IT0_EE, symObjAddr: 0xFDBC, symBinAddr: 0x100031534, symSize: 0x48 }
  - { offsetInCU: 0xAF49, offset: 0x40BA4, size: 0x8, addend: 0x0, symName: '__ZNSt3__111__sort_implB8ue170006INS_17_ClassicAlgPolicyEPP4EdgeZN8MyCanvas8drawPathERK5GPathRK6GPaintE3$_0EEvT0_SD_RT1_', symObjAddr: 0x10204, symBinAddr: 0x10003197C, symSize: 0x78 }
  - { offsetInCU: 0xAFAD, offset: 0x40C08, size: 0x8, addend: 0x0, symName: '__ZNSt3__115__sort_dispatchB8ue170006INS_17_ClassicAlgPolicyEPP4EdgeZN8MyCanvas8drawPathERK5GPathRK6GPaintE3$_0EEvT0_SD_RT1_', symObjAddr: 0x1027C, symBinAddr: 0x1000319F4, symSize: 0x64 }
  - { offsetInCU: 0xB02C, offset: 0x40C87, size: 0x8, addend: 0x0, symName: '__ZNSt3__135__check_strict_weak_ordering_sortedB8ue170006IPP4EdgeZN8MyCanvas8drawPathERK5GPathRK6GPaintE3$_0EEvT_SC_RT0_', symObjAddr: 0x102E0, symBinAddr: 0x100031A58, symSize: 0x18 }
  - { offsetInCU: 0xB083, offset: 0x40CDE, size: 0x8, addend: 0x0, symName: '__ZNSt3__124__sort3_maybe_branchlessB8ue170006INS_17_ClassicAlgPolicyERZN8MyCanvas8drawPathERK5GPathRK6GPaintE3$_0PP4EdgeEENS_9enable_ifIXntsr21__use_branchless_sortIT0_T1_EE5valueEvE4typeESG_SG_SG_SF_', symObjAddr: 0x1078C, symBinAddr: 0x100031F04, symSize: 0x3C }
  - { offsetInCU: 0xB0F4, offset: 0x40D4F, size: 0x8, addend: 0x0, symName: '__ZNSt3__124__sort4_maybe_branchlessB8ue170006INS_17_ClassicAlgPolicyERZN8MyCanvas8drawPathERK5GPathRK6GPaintE3$_0PP4EdgeEENS_9enable_ifIXntsr21__use_branchless_sortIT0_T1_EE5valueEvE4typeESG_SG_SG_SG_SF_', symObjAddr: 0x107C8, symBinAddr: 0x100031F40, symSize: 0x44 }
  - { offsetInCU: 0xB173, offset: 0x40DCE, size: 0x8, addend: 0x0, symName: '__ZNSt3__124__sort5_maybe_branchlessB8ue170006INS_17_ClassicAlgPolicyERZN8MyCanvas8drawPathERK5GPathRK6GPaintE3$_0PP4EdgeEENS_9enable_ifIXntsr21__use_branchless_sortIT0_T1_EE5valueEvE4typeESG_SG_SG_SG_SG_SF_', symObjAddr: 0x1080C, symBinAddr: 0x100031F84, symSize: 0x4C }
  - { offsetInCU: 0xB200, offset: 0x40E5B, size: 0x8, addend: 0x0, symName: '__ZNSt3__116__insertion_sortB8ue170006INS_17_ClassicAlgPolicyERZN8MyCanvas8drawPathERK5GPathRK6GPaintE3$_0PP4EdgeEEvT1_SE_T0_', symObjAddr: 0x10858, symBinAddr: 0x100031FD0, symSize: 0x15C }
  - { offsetInCU: 0xB2C3, offset: 0x40F1E, size: 0x8, addend: 0x0, symName: '__ZNSt3__114__partial_sortB8ue170006INS_17_ClassicAlgPolicyERZN8MyCanvas8drawPathERK5GPathRK6GPaintE3$_0PP4EdgeSD_EET1_SE_SE_T2_RT0_', symObjAddr: 0x10AE0, symBinAddr: 0x100032258, symSize: 0x94 }
  - { offsetInCU: 0xB34B, offset: 0x40FA6, size: 0x8, addend: 0x0, symName: '__ZNSt3__17__sort3B8ue170006INS_17_ClassicAlgPolicyERZN8MyCanvas8drawPathERK5GPathRK6GPaintE3$_0PP4EdgeEEjT1_SE_SE_T0_', symObjAddr: 0x10B74, symBinAddr: 0x1000322EC, symSize: 0x16C }
  - { offsetInCU: 0xB3CA, offset: 0x41025, size: 0x8, addend: 0x0, symName: '__ZNSt3__17__sort4B8ue170006INS_17_ClassicAlgPolicyERZN8MyCanvas8drawPathERK5GPathRK6GPaintE3$_0PP4EdgeEEvT1_SE_SE_SE_T0_', symObjAddr: 0x117E4, symBinAddr: 0x100032F5C, symSize: 0xD0 }
  - { offsetInCU: 0xB445, offset: 0x410A0, size: 0x8, addend: 0x0, symName: '__ZNSt3__17__sort5B8ue170006INS_17_ClassicAlgPolicyERZN8MyCanvas8drawPathERK5GPathRK6GPaintE3$_0PP4EdgeEEvT1_SE_SE_SE_SE_T0_', symObjAddr: 0x118B4, symBinAddr: 0x10003302C, symSize: 0x108 }
  - { offsetInCU: 0xB4CE, offset: 0x41129, size: 0x8, addend: 0x0, symName: '__ZNSt3__119__partial_sort_implB8ue170006INS_17_ClassicAlgPolicyERZN8MyCanvas8drawPathERK5GPathRK6GPaintE3$_0PP4EdgeSD_EET1_SE_SE_T2_OT0_', symObjAddr: 0x119BC, symBinAddr: 0x100033134, symSize: 0x118 }
  - { offsetInCU: 0xB564, offset: 0x411BF, size: 0x8, addend: 0x0, symName: '__ZNSt3__111__make_heapB8ue170006INS_17_ClassicAlgPolicyERZN8MyCanvas8drawPathERK5GPathRK6GPaintE3$_0PP4EdgeEEvT1_SE_OT0_', symObjAddr: 0x11AD4, symBinAddr: 0x10003324C, symSize: 0xB8 }
  - { offsetInCU: 0xB606, offset: 0x41261, size: 0x8, addend: 0x0, symName: '__ZNSt3__111__sort_heapB8ue170006INS_17_ClassicAlgPolicyERZN8MyCanvas8drawPathERK5GPathRK6GPaintE3$_0PP4EdgeEEvT1_SE_OT0_', symObjAddr: 0x11DAC, symBinAddr: 0x100033524, symSize: 0xA8 }
  - { offsetInCU: 0xB6A8, offset: 0x41303, size: 0x8, addend: 0x0, symName: '__ZNSt3__110__pop_heapB8ue170006INS_17_ClassicAlgPolicyEZN8MyCanvas8drawPathERK5GPathRK6GPaintE3$_0PP4EdgeEEvT1_SD_RT0_NS_15iterator_traitsISD_E15difference_typeE', symObjAddr: 0x11E54, symBinAddr: 0x1000335CC, symSize: 0xF4 }
  - { offsetInCU: 0xB758, offset: 0x413B3, size: 0x8, addend: 0x0, symName: '__ZNSt3__19__sift_upB8ue170006INS_17_ClassicAlgPolicyERZN8MyCanvas8drawPathERK5GPathRK6GPaintE3$_0PP4EdgeEEvT1_SE_OT0_NS_15iterator_traitsISE_E15difference_typeE', symObjAddr: 0x1204C, symBinAddr: 0x1000337C4, symSize: 0x128 }
  - { offsetInCU: 0xB808, offset: 0x41463, size: 0x8, addend: 0x0, symName: '__ZNSt3__122__populate_left_bitsetB8ue170006IRZN8MyCanvas8drawPathERK5GPathRK6GPaintE3$_0PP4EdgeSB_EEvT0_T_RT1_Ry', symObjAddr: 0x12174, symBinAddr: 0x1000338EC, symSize: 0xB0 }
  - { offsetInCU: 0xB8C4, offset: 0x4151F, size: 0x8, addend: 0x0, symName: '__ZNSt3__123__populate_right_bitsetB8ue170006IRZN8MyCanvas8drawPathERK5GPathRK6GPaintE3$_0PP4EdgeSB_EEvT0_T_RT1_Ry', symObjAddr: 0x12224, symBinAddr: 0x10003399C, symSize: 0xA8 }
  - { offsetInCU: 0xB980, offset: 0x415DB, size: 0x8, addend: 0x0, symName: '__ZNSt3__133__bitset_partition_partial_blocksB8ue170006INS_17_ClassicAlgPolicyERZN8MyCanvas8drawPathERK5GPathRK6GPaintE3$_0PP4EdgeSC_EEvRT1_SF_T0_RT2_RySJ_', symObjAddr: 0x122CC, symBinAddr: 0x100033A44, symSize: 0x2F8 }
  - { offsetInCU: 0xC654, offset: 0x422AF, size: 0x8, addend: 0x0, symName: __ZNSt3__16vectorI7GMatrixNS_9allocatorIS1_EEE26__swap_out_circular_bufferERNS_14__split_bufferIS1_RS3_EE, symObjAddr: 0xA4D8, symBinAddr: 0x10002BCD0, symSize: 0x110 }
  - { offsetInCU: 0xCA20, offset: 0x4267B, size: 0x8, addend: 0x0, symName: __ZNSt3__16vectorI4EdgeNS_9allocatorIS1_EEE26__swap_out_circular_bufferERNS_14__split_bufferIS1_RS3_EE, symObjAddr: 0xF068, symBinAddr: 0x1000307E0, symSize: 0x110 }
  - { offsetInCU: 0xEA92, offset: 0x446ED, size: 0x8, addend: 0x0, symName: __ZN8MyCanvas4saveEv, symObjAddr: 0x0, symBinAddr: 0x10002425C, symSize: 0x3C }
  - { offsetInCU: 0xEAB8, offset: 0x44713, size: 0x8, addend: 0x0, symName: __ZNSt3__16vectorI7GMatrixNS_9allocatorIS1_EEE9push_backB8ue170006ERKS1_, symObjAddr: 0x3C, symBinAddr: 0x100024298, symSize: 0x6C }
  - { offsetInCU: 0xEAEE, offset: 0x44749, size: 0x8, addend: 0x0, symName: __ZNSt3__16vectorI7GMatrixNS_9allocatorIS1_EEE4backB8ue170006Ev, symObjAddr: 0xA8, symBinAddr: 0x100024304, symSize: 0x1C }
  - { offsetInCU: 0xEB12, offset: 0x4476D, size: 0x8, addend: 0x0, symName: __ZN8MyCanvas7restoreEv, symObjAddr: 0xC4, symBinAddr: 0x100024320, symSize: 0x28 }
  - { offsetInCU: 0xEB38, offset: 0x44793, size: 0x8, addend: 0x0, symName: __ZNSt3__16vectorI7GMatrixNS_9allocatorIS1_EEE8pop_backEv, symObjAddr: 0xEC, symBinAddr: 0x100024348, symSize: 0x2C }
  - { offsetInCU: 0xEB5F, offset: 0x447BA, size: 0x8, addend: 0x0, symName: __ZN8MyCanvas6concatERK7GMatrix, symObjAddr: 0x118, symBinAddr: 0x100024374, symSize: 0x58 }
  - { offsetInCU: 0xEB93, offset: 0x447EE, size: 0x8, addend: 0x0, symName: __ZN8MyCanvas5clearERK6GColor, symObjAddr: 0x170, symBinAddr: 0x1000243CC, symSize: 0xF4 }
  - { offsetInCU: 0xEC36, offset: 0x44891, size: 0x8, addend: 0x0, symName: __ZL16premultiplyScaleRK6GColor, symObjAddr: 0x264, symBinAddr: 0x1000244C0, symSize: 0x148 }
  - { offsetInCU: 0xEC63, offset: 0x448BE, size: 0x8, addend: 0x0, symName: __ZN8MyCanvas8drawRectERK5GRectRK6GPaint, symObjAddr: 0x524, symBinAddr: 0x100024608, symSize: 0x304 }
  - { offsetInCU: 0xED48, offset: 0x449A3, size: 0x8, addend: 0x0, symName: __ZN7GMatrixneERKS_, symObjAddr: 0x828, symBinAddr: 0x10002490C, symSize: 0x34 }
  - { offsetInCU: 0xED7A, offset: 0x449D5, size: 0x8, addend: 0x0, symName: __ZNK6GPaint8getColorEv, symObjAddr: 0x85C, symBinAddr: 0x100024940, symSize: 0x14 }
  - { offsetInCU: 0xED9E, offset: 0x449F9, size: 0x8, addend: 0x0, symName: __ZNK6GPaint12getBlendModeEv, symObjAddr: 0x870, symBinAddr: 0x100024954, symSize: 0x18 }
  - { offsetInCU: 0xEDC2, offset: 0x44A1D, size: 0x8, addend: 0x0, symName: __ZNK6GPaint9getShaderEv, symObjAddr: 0x888, symBinAddr: 0x10002496C, symSize: 0x18 }
  - { offsetInCU: 0xEDE6, offset: 0x44A41, size: 0x8, addend: 0x0, symName: __ZN8MyCanvas13getBlendProcsEP7GShader, symObjAddr: 0x8A0, symBinAddr: 0x100024984, symSize: 0x6C }
  - { offsetInCU: 0xEE09, offset: 0x44A64, size: 0x8, addend: 0x0, symName: __ZN8MyCanvas16getBlendRowProcsEj, symObjAddr: 0x90C, symBinAddr: 0x1000249F0, symSize: 0x84 }
  - { offsetInCU: 0xEE2C, offset: 0x44A87, size: 0x8, addend: 0x0, symName: __ZL4kDstRjS_, symObjAddr: 0x990, symBinAddr: 0x100024A74, symSize: 0x1C }
  - { offsetInCU: 0xEE65, offset: 0x44AC0, size: 0x8, addend: 0x0, symName: __ZL4kDstiiiRjRK7GBitmap, symObjAddr: 0x9AC, symBinAddr: 0x100024A90, symSize: 0x20 }
  - { offsetInCU: 0xEEC6, offset: 0x44B21, size: 0x8, addend: 0x0, symName: __ZL6kClearRjS_, symObjAddr: 0x9CC, symBinAddr: 0x100024AB0, symSize: 0x34 }
  - { offsetInCU: 0xEF00, offset: 0x44B5B, size: 0x8, addend: 0x0, symName: __ZL6kCleariiiRjRK7GBitmap, symObjAddr: 0xA00, symBinAddr: 0x100024AE4, symSize: 0x98 }
  - { offsetInCU: 0xEF7D, offset: 0x44BD8, size: 0x8, addend: 0x0, symName: __ZN8MyCanvas9intersectERK6GIRectii, symObjAddr: 0xA98, symBinAddr: 0x100024B7C, symSize: 0xB8 }
  - { offsetInCU: 0xEFBC, offset: 0x44C17, size: 0x8, addend: 0x0, symName: __ZNK5GRect5roundEv, symObjAddr: 0xB50, symBinAddr: 0x100024C34, symSize: 0x80 }
  - { offsetInCU: 0xF020, offset: 0x44C7B, size: 0x8, addend: 0x0, symName: __ZN8MyCanvas7blitRowIPFKjRjS2_EPFviiiS2_RK7GBitmapEEEviiiS2_T_T0_P7GShader, symObjAddr: 0xBD0, symBinAddr: 0x100024CB4, symSize: 0x1A4 }
  - { offsetInCU: 0xF130, offset: 0x44D8B, size: 0x8, addend: 0x0, symName: __ZN8MyCanvas17drawConvexPolygonEPK6GPointiRK6GPaint, symObjAddr: 0xD74, symBinAddr: 0x100024E58, symSize: 0x5D4 }
  - { offsetInCU: 0xF2C7, offset: 0x44F22, size: 0x8, addend: 0x0, symName: __ZNSt3__16vectorI4EdgeNS_9allocatorIS1_EEEC1B8ue170006Ev, symObjAddr: 0x1348, symBinAddr: 0x10002542C, symSize: 0x2C }
  - { offsetInCU: 0xF2F0, offset: 0x44F4B, size: 0x8, addend: 0x0, symName: __ZN8MyCanvas8clipEdgeE6GPointS0_PNSt3__16vectorI4EdgeNS1_9allocatorIS3_EEEE, symObjAddr: 0x1374, symBinAddr: 0x100025458, symSize: 0x5D0 }
  - { offsetInCU: 0xF3DF, offset: 0x4503A, size: 0x8, addend: 0x0, symName: __ZNKSt3__16vectorI4EdgeNS_9allocatorIS1_EEE4sizeB8ue170006Ev, symObjAddr: 0x1944, symBinAddr: 0x100025A28, symSize: 0x28 }
  - { offsetInCU: 0xF403, offset: 0x4505E, size: 0x8, addend: 0x0, symName: __ZNSt3__16vectorI4EdgeNS_9allocatorIS1_EEE2atEm, symObjAddr: 0x196C, symBinAddr: 0x100025A50, symSize: 0x68 }
  - { offsetInCU: 0xF439, offset: 0x45094, size: 0x8, addend: 0x0, symName: __ZN4Edge11comparatorYEPS_S0_, symObjAddr: 0x1A0C, symBinAddr: 0x100025AF0, symSize: 0x30 }
  - { offsetInCU: 0xF46A, offset: 0x450C5, size: 0x8, addend: 0x0, symName: __ZL11GRoundToIntf, symObjAddr: 0x1A3C, symBinAddr: 0x100025B20, symSize: 0x20 }
  - { offsetInCU: 0xF496, offset: 0x450F1, size: 0x8, addend: 0x0, symName: __ZN4Edge4evalEf, symObjAddr: 0x1A5C, symBinAddr: 0x100025B40, symSize: 0x28 }
  - { offsetInCU: 0xF4C8, offset: 0x45123, size: 0x8, addend: 0x0, symName: __ZN4Edge7isValidEf, symObjAddr: 0x1AC0, symBinAddr: 0x100025BA4, symSize: 0x68 }
  - { offsetInCU: 0xF4FA, offset: 0x45155, size: 0x8, addend: 0x0, symName: __ZN4Edge8computeMER6GPointS1_, symObjAddr: 0x1B54, symBinAddr: 0x100025C38, symSize: 0x40 }
  - { offsetInCU: 0xF52B, offset: 0x45186, size: 0x8, addend: 0x0, symName: __ZN4Edge8computeBER6GPointf, symObjAddr: 0x1B94, symBinAddr: 0x100025C78, symSize: 0x2C }
  - { offsetInCU: 0xF55C, offset: 0x451B7, size: 0x8, addend: 0x0, symName: __ZN4Edge10computeTopER6GPointS1_, symObjAddr: 0x1BC0, symBinAddr: 0x100025CA4, symSize: 0x3C }
  - { offsetInCU: 0xF58D, offset: 0x451E8, size: 0x8, addend: 0x0, symName: __ZN4Edge13computeBottomER6GPointS1_, symObjAddr: 0x1BFC, symBinAddr: 0x100025CE0, symSize: 0x3C }
  - { offsetInCU: 0xF5BE, offset: 0x45219, size: 0x8, addend: 0x0, symName: __ZN4Edge14computeWindingER6GPointS1_, symObjAddr: 0x1C38, symBinAddr: 0x100025D1C, symSize: 0x40 }
  - { offsetInCU: 0xF5EF, offset: 0x4524A, size: 0x8, addend: 0x0, symName: __ZNSt3__16vectorI4EdgeNS_9allocatorIS1_EEE9push_backB8ue170006EOS1_, symObjAddr: 0x1CB4, symBinAddr: 0x100025D98, symSize: 0x6C }
  - { offsetInCU: 0xF625, offset: 0x45280, size: 0x8, addend: 0x0, symName: __ZN4EdgeC1Effiii, symObjAddr: 0x1D20, symBinAddr: 0x100025E04, symSize: 0x54 }
  - { offsetInCU: 0xF694, offset: 0x452EF, size: 0x8, addend: 0x0, symName: __ZN8MyCanvas8drawPathERK5GPathRK6GPaint, symObjAddr: 0x1DA0, symBinAddr: 0x100025E58, symSize: 0xC3C }
  - { offsetInCU: 0xF930, offset: 0x4558B, size: 0x8, addend: 0x0, symName: __ZN5GPathC1ERKS_, symObjAddr: 0x29EC, symBinAddr: 0x100026AA4, symSize: 0x34 }
  - { offsetInCU: 0xF963, offset: 0x455BE, size: 0x8, addend: 0x0, symName: __Zml6GPointf, symObjAddr: 0x2AA4, symBinAddr: 0x100026AD8, symSize: 0x40 }
  - { offsetInCU: 0xF99E, offset: 0x455F9, size: 0x8, addend: 0x0, symName: __ZNK6GPointmiES_, symObjAddr: 0x2AE4, symBinAddr: 0x100026B18, symSize: 0x44 }
  - { offsetInCU: 0xF9D0, offset: 0x4562B, size: 0x8, addend: 0x0, symName: __ZL10GCeilToIntf, symObjAddr: 0x2BAC, symBinAddr: 0x100026B5C, symSize: 0x18 }
  - { offsetInCU: 0xF9FB, offset: 0x45656, size: 0x8, addend: 0x0, symName: __ZL9magnitudeRK6GPoint, symObjAddr: 0x2BDC, symBinAddr: 0x100026B74, symSize: 0x48 }
  - { offsetInCU: 0xFA27, offset: 0x45682, size: 0x8, addend: 0x0, symName: __ZL11computeQuadfRK6GPointS1_S1_, symObjAddr: 0x2C24, symBinAddr: 0x100026BBC, symSize: 0x10C }
  - { offsetInCU: 0xFA8B, offset: 0x456E6, size: 0x8, addend: 0x0, symName: __Z3absB8ue170006f, symObjAddr: 0x2D5C, symBinAddr: 0x100026CC8, symSize: 0x18 }
  - { offsetInCU: 0xFAB7, offset: 0x45712, size: 0x8, addend: 0x0, symName: __ZL12computeCubicfRK6GPointS1_S1_S1_, symObjAddr: 0x2D74, symBinAddr: 0x100026CE0, symSize: 0x18C }
  - { offsetInCU: 0xFB2A, offset: 0x45785, size: 0x8, addend: 0x0, symName: __ZN4Edge12comparatorYXEPS_S0_, symObjAddr: 0x2F00, symBinAddr: 0x100026E6C, symSize: 0xD0 }
  - { offsetInCU: 0xFB5B, offset: 0x457B6, size: 0x8, addend: 0x0, symName: __ZNK5GRect8roundOutEv, symObjAddr: 0x2FD0, symBinAddr: 0x100026F3C, symSize: 0x80 }
  - { offsetInCU: 0xFB7F, offset: 0x457DA, size: 0x8, addend: 0x0, symName: __ZN8MyCanvas8drawMeshEPK6GPointPK6GColorS2_iPKiRK6GPaint, symObjAddr: 0x30C0, symBinAddr: 0x10002702C, symSize: 0x77C }
  - { offsetInCU: 0xFD1A, offset: 0x45975, size: 0x8, addend: 0x0, symName: __ZN6GPaintC1Ev, symObjAddr: 0x383C, symBinAddr: 0x1000277A8, symSize: 0x2C }
  - { offsetInCU: 0xFD43, offset: 0x4599E, size: 0x8, addend: 0x0, symName: __ZN6GPaint9setShaderEP7GShader, symObjAddr: 0x3868, symBinAddr: 0x1000277D4, symSize: 0x20 }
  - { offsetInCU: 0xFD74, offset: 0x459CF, size: 0x8, addend: 0x0, symName: __ZL12computeBasisRK6GPointS1_S1_, symObjAddr: 0x3888, symBinAddr: 0x1000277F4, symSize: 0x9C }
  - { offsetInCU: 0xFDBD, offset: 0x45A18, size: 0x8, addend: 0x0, symName: __ZNOSt3__18optionalI7GMatrixEdeB8ue170006Ev, symObjAddr: 0x3924, symBinAddr: 0x100027890, symSize: 0x24 }
  - { offsetInCU: 0xFEB3, offset: 0x45B0E, size: 0x8, addend: 0x0, symName: __ZN13MyProxyShaderC1EP7GShaderRK7GMatrix, symObjAddr: 0x3974, symBinAddr: 0x1000278B4, symSize: 0x3C }
  - { offsetInCU: 0xFEF8, offset: 0x45B53, size: 0x8, addend: 0x0, symName: __ZN8MyCanvas8drawQuadEPK6GPointPK6GColorS2_iRK6GPaint, symObjAddr: 0x39B0, symBinAddr: 0x1000278F0, symSize: 0x934 }
  - { offsetInCU: 0x1010B, offset: 0x45D66, size: 0x8, addend: 0x0, symName: __ZL10quadrulateffPK6GPoint, symObjAddr: 0x42E4, symBinAddr: 0x100028224, symSize: 0x94 }
  - { offsetInCU: 0x10153, offset: 0x45DAE, size: 0x8, addend: 0x0, symName: __ZL10quadrulateffPK6GColor, symObjAddr: 0x4378, symBinAddr: 0x1000282B8, symSize: 0x188 }
  - { offsetInCU: 0x1019B, offset: 0x45DF6, size: 0x8, addend: 0x0, symName: __Z13GCreateCanvasRK7GBitmap, symObjAddr: 0x4500, symBinAddr: 0x100028440, symSize: 0x6C }
  - { offsetInCU: 0x101CA, offset: 0x45E25, size: 0x8, addend: 0x0, symName: __ZN8MyCanvasC1ERK7GBitmap, symObjAddr: 0x456C, symBinAddr: 0x1000284AC, symSize: 0x34 }
  - { offsetInCU: 0x10201, offset: 0x45E5C, size: 0x8, addend: 0x0, symName: __ZNSt3__110unique_ptrI7GCanvasNS_14default_deleteIS1_EEEC1B8ue170006ILb1EvEEPS1_, symObjAddr: 0x45A0, symBinAddr: 0x1000284E0, symSize: 0x34 }
  - { offsetInCU: 0x10242, offset: 0x45E9D, size: 0x8, addend: 0x0, symName: __Z14GDrawSomethingP7GCanvas5GSizeIiE, symObjAddr: 0x45D4, symBinAddr: 0x100028514, symSize: 0x250 }
  - { offsetInCU: 0x102D1, offset: 0x45F2C, size: 0x8, addend: 0x0, symName: __ZN7GBitmapC1Ev, symObjAddr: 0x4824, symBinAddr: 0x100028764, symSize: 0x2C }
  - { offsetInCU: 0x1031D, offset: 0x45F78, size: 0x8, addend: 0x0, symName: __ZNKSt3__110unique_ptrI7GShaderNS_14default_deleteIS1_EEE3getB8ue170006Ev, symObjAddr: 0x4850, symBinAddr: 0x100028790, symSize: 0x28 }
  - { offsetInCU: 0x10341, offset: 0x45F9C, size: 0x8, addend: 0x0, symName: __ZN6GPaintC1EP7GShader, symObjAddr: 0x4878, symBinAddr: 0x1000287B8, symSize: 0x34 }
  - { offsetInCU: 0x1037D, offset: 0x45FD8, size: 0x8, addend: 0x0, symName: __ZNSt3__112basic_stringIcNS_11char_traitsIcEENS_9allocatorIcEEEC1B8ue170006ILi0EEEPKc, symObjAddr: 0x48AC, symBinAddr: 0x1000287EC, symSize: 0x34 }
  - { offsetInCU: 0x103BB, offset: 0x46016, size: 0x8, addend: 0x0, symName: __ZNSt3__110unique_ptrI7GShaderNS_14default_deleteIS1_EEED1B8ue170006Ev, symObjAddr: 0x48E0, symBinAddr: 0x100028820, symSize: 0x2C }
  - { offsetInCU: 0x103E4, offset: 0x4603F, size: 0x8, addend: 0x0, symName: __ZN8MyCanvasD1Ev, symObjAddr: 0x490C, symBinAddr: 0x10002884C, symSize: 0x2C }
  - { offsetInCU: 0x1040F, offset: 0x4606A, size: 0x8, addend: 0x0, symName: __ZN8MyCanvasD0Ev, symObjAddr: 0x4938, symBinAddr: 0x100028878, symSize: 0x30 }
  - { offsetInCU: 0x10439, offset: 0x46094, size: 0x8, addend: 0x0, symName: __ZL15GPixel_PackARGBjjjj, symObjAddr: 0x4968, symBinAddr: 0x1000288A8, symSize: 0x134 }
  - { offsetInCU: 0x10490, offset: 0x460EB, size: 0x8, addend: 0x0, symName: __ZN7GMatrixeqERKS_, symObjAddr: 0x4ACC, symBinAddr: 0x1000289DC, symSize: 0xA4 }
  - { offsetInCU: 0x104DE, offset: 0x46139, size: 0x8, addend: 0x0, symName: __ZL4kSrcRjS_, symObjAddr: 0x4B70, symBinAddr: 0x100028A80, symSize: 0x1C }
  - { offsetInCU: 0x10517, offset: 0x46172, size: 0x8, addend: 0x0, symName: __ZL8kDstOverRjS_, symObjAddr: 0x4B8C, symBinAddr: 0x100028A9C, symSize: 0x17C }
  - { offsetInCU: 0x1055F, offset: 0x461BA, size: 0x8, addend: 0x0, symName: __ZL6kSrcInRjS_, symObjAddr: 0x4D08, symBinAddr: 0x100028C18, symSize: 0x164 }
  - { offsetInCU: 0x10599, offset: 0x461F4, size: 0x8, addend: 0x0, symName: __ZL7kSrcOutRjS_, symObjAddr: 0x4E6C, symBinAddr: 0x100028D7C, symSize: 0x14C }
  - { offsetInCU: 0x105E2, offset: 0x4623D, size: 0x8, addend: 0x0, symName: __ZL11GPixel_GetAj, symObjAddr: 0x4FB8, symBinAddr: 0x100028EC8, symSize: 0x1C }
  - { offsetInCU: 0x1060E, offset: 0x46269, size: 0x8, addend: 0x0, symName: __ZL7GDiv255j, symObjAddr: 0x4FD4, symBinAddr: 0x100028EE4, symSize: 0x24 }
  - { offsetInCU: 0x1063A, offset: 0x46295, size: 0x8, addend: 0x0, symName: __ZL11GPixel_GetRj, symObjAddr: 0x4FF8, symBinAddr: 0x100028F08, symSize: 0x1C }
  - { offsetInCU: 0x10666, offset: 0x462C1, size: 0x8, addend: 0x0, symName: __ZL11GPixel_GetGj, symObjAddr: 0x5014, symBinAddr: 0x100028F24, symSize: 0x1C }
  - { offsetInCU: 0x10692, offset: 0x462ED, size: 0x8, addend: 0x0, symName: __ZL11GPixel_GetBj, symObjAddr: 0x5030, symBinAddr: 0x100028F40, symSize: 0x1C }
  - { offsetInCU: 0x106BD, offset: 0x46318, size: 0x8, addend: 0x0, symName: __ZL8kSrcOverRjS_, symObjAddr: 0x504C, symBinAddr: 0x100028F5C, symSize: 0x144 }
  - { offsetInCU: 0x10705, offset: 0x46360, size: 0x8, addend: 0x0, symName: __ZL6kDstInRjS_, symObjAddr: 0x5190, symBinAddr: 0x1000290A0, symSize: 0x134 }
  - { offsetInCU: 0x1073F, offset: 0x4639A, size: 0x8, addend: 0x0, symName: __ZL7kDstOutRjS_, symObjAddr: 0x52C4, symBinAddr: 0x1000291D4, symSize: 0x110 }
  - { offsetInCU: 0x10787, offset: 0x463E2, size: 0x8, addend: 0x0, symName: __ZL8kSrcATopRjS_, symObjAddr: 0x53D4, symBinAddr: 0x1000292E4, symSize: 0x1E8 }
  - { offsetInCU: 0x107DD, offset: 0x46438, size: 0x8, addend: 0x0, symName: __ZL8kDstATopRjS_, symObjAddr: 0x55BC, symBinAddr: 0x1000294CC, symSize: 0x1E8 }
  - { offsetInCU: 0x10833, offset: 0x4648E, size: 0x8, addend: 0x0, symName: __ZL4kXorRjS_, symObjAddr: 0x57A4, symBinAddr: 0x1000296B4, symSize: 0x218 }
  - { offsetInCU: 0x10889, offset: 0x464E4, size: 0x8, addend: 0x0, symName: __ZL4kSrciiiRjRK7GBitmap, symObjAddr: 0x59BC, symBinAddr: 0x1000298CC, symSize: 0x88 }
  - { offsetInCU: 0x10905, offset: 0x46560, size: 0x8, addend: 0x0, symName: __ZL8kDstOveriiiRjRK7GBitmap, symObjAddr: 0x5A44, symBinAddr: 0x100029954, symSize: 0x1A4 }
  - { offsetInCU: 0x1099D, offset: 0x465F8, size: 0x8, addend: 0x0, symName: __ZL6kSrcIniiiRjRK7GBitmap, symObjAddr: 0x5BE8, symBinAddr: 0x100029AF8, symSize: 0x150 }
  - { offsetInCU: 0x10A27, offset: 0x46682, size: 0x8, addend: 0x0, symName: __ZL7kSrcOutiiiRjRK7GBitmap, symObjAddr: 0x5D38, symBinAddr: 0x100029C48, symSize: 0x138 }
  - { offsetInCU: 0x10ABF, offset: 0x4671A, size: 0x8, addend: 0x0, symName: __ZL8kSrcOveriiiRjRK7GBitmap, symObjAddr: 0x5E70, symBinAddr: 0x100029D80, symSize: 0x1A4 }
  - { offsetInCU: 0x10B57, offset: 0x467B2, size: 0x8, addend: 0x0, symName: __ZL6kDstIniiiRjRK7GBitmap, symObjAddr: 0x6014, symBinAddr: 0x100029F24, symSize: 0x150 }
  - { offsetInCU: 0x10BE1, offset: 0x4683C, size: 0x8, addend: 0x0, symName: __ZL7kDstOutiiiRjRK7GBitmap, symObjAddr: 0x6164, symBinAddr: 0x10002A074, symSize: 0x138 }
  - { offsetInCU: 0x10C79, offset: 0x468D4, size: 0x8, addend: 0x0, symName: __ZL8kSrcATopiiiRjRK7GBitmap, symObjAddr: 0x629C, symBinAddr: 0x10002A1AC, symSize: 0x1E8 }
  - { offsetInCU: 0x10D20, offset: 0x4697B, size: 0x8, addend: 0x0, symName: __ZL8kDstATopiiiRjRK7GBitmap, symObjAddr: 0x6484, symBinAddr: 0x10002A394, symSize: 0x2DC }
  - { offsetInCU: 0x10DD1, offset: 0x46A2C, size: 0x8, addend: 0x0, symName: __ZL4kXoriiiRjRK7GBitmap, symObjAddr: 0x6760, symBinAddr: 0x10002A670, symSize: 0x1F0 }
  - { offsetInCU: 0x10E83, offset: 0x46ADE, size: 0x8, addend: 0x0, symName: __ZN6GIRect4LTRBEiiii, symObjAddr: 0x6950, symBinAddr: 0x10002A860, symSize: 0x44 }
  - { offsetInCU: 0x10ED5, offset: 0x46B30, size: 0x8, addend: 0x0, symName: __ZN4EdgeC2Effiii, symObjAddr: 0x6AD0, symBinAddr: 0x10002A8F8, symSize: 0x50 }
  - { offsetInCU: 0x10F44, offset: 0x46B9F, size: 0x8, addend: 0x0, symName: __ZN5GPathC2ERKS_, symObjAddr: 0x6B74, symBinAddr: 0x10002A948, symSize: 0x70 }
  - { offsetInCU: 0x10F78, offset: 0x46BD3, size: 0x8, addend: 0x0, symName: __ZNSt3__16vectorI6GPointNS_9allocatorIS1_EEEC1ERKS4_, symObjAddr: 0x6BE4, symBinAddr: 0x10002A9B8, symSize: 0x34 }
  - { offsetInCU: 0x10FB2, offset: 0x46C0D, size: 0x8, addend: 0x0, symName: __ZNSt3__16vectorIN5GPath4VerbENS_9allocatorIS2_EEEC1ERKS5_, symObjAddr: 0x6C18, symBinAddr: 0x10002A9EC, symSize: 0x34 }
  - { offsetInCU: 0x10FEC, offset: 0x46C47, size: 0x8, addend: 0x0, symName: __ZNSt3__16vectorI6GPointNS_9allocatorIS1_EEEC2ERKS4_, symObjAddr: 0x6C78, symBinAddr: 0x10002AA20, symSize: 0x94 }
  - { offsetInCU: 0x11030, offset: 0x46C8B, size: 0x8, addend: 0x0, symName: __ZNSt3__116allocator_traitsINS_9allocatorI6GPointEEE37select_on_container_copy_constructionB8ue170006IS3_vvEES3_RKS3_, symObjAddr: 0x6D0C, symBinAddr: 0x10002AAB4, symSize: 0x10 }
  - { offsetInCU: 0x1106B, offset: 0x46CC6, size: 0x8, addend: 0x0, symName: __ZNSt3__117__compressed_pairIP6GPointNS_9allocatorIS1_EEEC1B8ue170006IDnS4_EEOT_OT0_, symObjAddr: 0x6D44, symBinAddr: 0x10002AAC4, symSize: 0x3C }
  - { offsetInCU: 0x110C2, offset: 0x46D1D, size: 0x8, addend: 0x0, symName: __ZNSt3__16vectorI6GPointNS_9allocatorIS1_EEE16__init_with_sizeB8ue170006IPS1_S6_EEvT_T0_m, symObjAddr: 0x6D80, symBinAddr: 0x10002AB00, symSize: 0xB8 }
  - { offsetInCU: 0x11134, offset: 0x46D8F, size: 0x8, addend: 0x0, symName: __ZNSt3__117__compressed_pairIP6GPointNS_9allocatorIS1_EEEC2B8ue170006IDnS4_EEOT_OT0_, symObjAddr: 0x6E98, symBinAddr: 0x10002ABB8, symSize: 0x44 }
  - { offsetInCU: 0x1118B, offset: 0x46DE6, size: 0x8, addend: 0x0, symName: __ZNSt3__122__compressed_pair_elemINS_9allocatorI6GPointEELi1ELb1EEC2B8ue170006IS3_vEEOT_, symObjAddr: 0x6EF8, symBinAddr: 0x10002ABFC, symSize: 0x18 }
  - { offsetInCU: 0x111CC, offset: 0x46E27, size: 0x8, addend: 0x0, symName: __ZNSt3__128__exception_guard_exceptionsINS_6vectorI6GPointNS_9allocatorIS2_EEE16__destroy_vectorEE10__completeB8ue170006Ev, symObjAddr: 0x70BC, symBinAddr: 0x10002AC54, symSize: 0x1C }
  - { offsetInCU: 0x111F0, offset: 0x46E4B, size: 0x8, addend: 0x0, symName: __ZNSt3__128__exception_guard_exceptionsINS_6vectorI6GPointNS_9allocatorIS2_EEE16__destroy_vectorEED1B8ue170006Ev, symObjAddr: 0x70D8, symBinAddr: 0x10002AC70, symSize: 0x2C }
  - { offsetInCU: 0x11219, offset: 0x46E74, size: 0x8, addend: 0x0, symName: __ZNSt3__128__exception_guard_exceptionsINS_6vectorI6GPointNS_9allocatorIS2_EEE16__destroy_vectorEEC1B8ue170006ES6_, symObjAddr: 0x7104, symBinAddr: 0x10002AC9C, symSize: 0x34 }
  - { offsetInCU: 0x11250, offset: 0x46EAB, size: 0x8, addend: 0x0, symName: __ZNSt3__128__exception_guard_exceptionsINS_6vectorI6GPointNS_9allocatorIS2_EEE16__destroy_vectorEEC2B8ue170006ES6_, symObjAddr: 0x7138, symBinAddr: 0x10002ACD0, symSize: 0x24 }
  - { offsetInCU: 0x112A0, offset: 0x46EFB, size: 0x8, addend: 0x0, symName: __ZNSt3__128__exception_guard_exceptionsINS_6vectorI6GPointNS_9allocatorIS2_EEE16__destroy_vectorEED2B8ue170006Ev, symObjAddr: 0x7ED0, symBinAddr: 0x10002ACF4, symSize: 0x50 }
  - { offsetInCU: 0x112C9, offset: 0x46F24, size: 0x8, addend: 0x0, symName: __ZNSt3__16vectorIN5GPath4VerbENS_9allocatorIS2_EEEC2ERKS5_, symObjAddr: 0x82D8, symBinAddr: 0x10002AD44, symSize: 0x94 }
  - { offsetInCU: 0x1130D, offset: 0x46F68, size: 0x8, addend: 0x0, symName: __ZNSt3__116allocator_traitsINS_9allocatorIN5GPath4VerbEEEE37select_on_container_copy_constructionB8ue170006IS4_vvEES4_RKS4_, symObjAddr: 0x836C, symBinAddr: 0x10002ADD8, symSize: 0x10 }
  - { offsetInCU: 0x11342, offset: 0x46F9D, size: 0x8, addend: 0x0, symName: __ZNSt3__117__compressed_pairIPN5GPath4VerbENS_9allocatorIS2_EEEC1B8ue170006IDnS5_EEOT_OT0_, symObjAddr: 0x83A4, symBinAddr: 0x10002ADE8, symSize: 0x3C }
  - { offsetInCU: 0x11399, offset: 0x46FF4, size: 0x8, addend: 0x0, symName: __ZNSt3__16vectorIN5GPath4VerbENS_9allocatorIS2_EEE16__init_with_sizeB8ue170006IPS2_S7_EEvT_T0_m, symObjAddr: 0x83E0, symBinAddr: 0x10002AE24, symSize: 0xB8 }
  - { offsetInCU: 0x1140B, offset: 0x47066, size: 0x8, addend: 0x0, symName: __ZNSt3__117__compressed_pairIPN5GPath4VerbENS_9allocatorIS2_EEEC2B8ue170006IDnS5_EEOT_OT0_, symObjAddr: 0x84F8, symBinAddr: 0x10002AEDC, symSize: 0x44 }
  - { offsetInCU: 0x11462, offset: 0x470BD, size: 0x8, addend: 0x0, symName: __ZNSt3__122__compressed_pair_elemINS_9allocatorIN5GPath4VerbEEELi1ELb1EEC2B8ue170006IS4_vEEOT_, symObjAddr: 0x8558, symBinAddr: 0x10002AF20, symSize: 0x18 }
  - { offsetInCU: 0x114A3, offset: 0x470FE, size: 0x8, addend: 0x0, symName: __ZNSt3__128__exception_guard_exceptionsINS_6vectorIN5GPath4VerbENS_9allocatorIS3_EEE16__destroy_vectorEE10__completeB8ue170006Ev, symObjAddr: 0x871C, symBinAddr: 0x10002AF78, symSize: 0x1C }
  - { offsetInCU: 0x114C7, offset: 0x47122, size: 0x8, addend: 0x0, symName: __ZNSt3__128__exception_guard_exceptionsINS_6vectorIN5GPath4VerbENS_9allocatorIS3_EEE16__destroy_vectorEED1B8ue170006Ev, symObjAddr: 0x8738, symBinAddr: 0x10002AF94, symSize: 0x2C }
  - { offsetInCU: 0x114F0, offset: 0x4714B, size: 0x8, addend: 0x0, symName: __ZNSt3__128__exception_guard_exceptionsINS_6vectorIN5GPath4VerbENS_9allocatorIS3_EEE16__destroy_vectorEEC1B8ue170006ES7_, symObjAddr: 0x8764, symBinAddr: 0x10002AFC0, symSize: 0x34 }
  - { offsetInCU: 0x11527, offset: 0x47182, size: 0x8, addend: 0x0, symName: __ZNSt3__128__exception_guard_exceptionsINS_6vectorIN5GPath4VerbENS_9allocatorIS3_EEE16__destroy_vectorEEC2B8ue170006ES7_, symObjAddr: 0x8798, symBinAddr: 0x10002AFF4, symSize: 0x24 }
  - { offsetInCU: 0x11577, offset: 0x471D2, size: 0x8, addend: 0x0, symName: __ZNSt3__128__exception_guard_exceptionsINS_6vectorIN5GPath4VerbENS_9allocatorIS3_EEE16__destroy_vectorEED2B8ue170006Ev, symObjAddr: 0x926C, symBinAddr: 0x10002B018, symSize: 0x50 }
  - { offsetInCU: 0x115A0, offset: 0x471FB, size: 0x8, addend: 0x0, symName: __ZL11GFloorToIntf, symObjAddr: 0x9804, symBinAddr: 0x10002B068, symSize: 0x18 }
  - { offsetInCU: 0x115CC, offset: 0x47227, size: 0x8, addend: 0x0, symName: __ZN6GPaintC2Ev, symObjAddr: 0x981C, symBinAddr: 0x10002B080, symSize: 0x38 }
  - { offsetInCU: 0x115F5, offset: 0x47250, size: 0x8, addend: 0x0, symName: __ZN7GMatrixC1E6GPointS0_S0_, symObjAddr: 0x9854, symBinAddr: 0x10002B0B8, symSize: 0x5C }
  - { offsetInCU: 0x11648, offset: 0x472A3, size: 0x8, addend: 0x0, symName: __ZN7GMatrixC2E6GPointS0_S0_, symObjAddr: 0x98B0, symBinAddr: 0x10002B114, symSize: 0x5C }
  - { offsetInCU: 0x1169B, offset: 0x472F6, size: 0x8, addend: 0x0, symName: __ZN13MyProxyShaderC2EP7GShaderRK7GMatrix, symObjAddr: 0x9920, symBinAddr: 0x10002B170, symSize: 0x68 }
  - { offsetInCU: 0x116E0, offset: 0x4733B, size: 0x8, addend: 0x0, symName: __ZN13MyProxyShaderD1Ev, symObjAddr: 0x99AC, symBinAddr: 0x10002B1D8, symSize: 0x2C }
  - { offsetInCU: 0x1170B, offset: 0x47366, size: 0x8, addend: 0x0, symName: __ZN13MyProxyShaderD0Ev, symObjAddr: 0x99D8, symBinAddr: 0x10002B204, symSize: 0x30 }
  - { offsetInCU: 0x11736, offset: 0x47391, size: 0x8, addend: 0x0, symName: __ZN13MyProxyShader8isOpaqueEv, symObjAddr: 0x9A08, symBinAddr: 0x10002B234, symSize: 0x34 }
  - { offsetInCU: 0x1175A, offset: 0x473B5, size: 0x8, addend: 0x0, symName: __ZN13MyProxyShader10setContextERK7GMatrix, symObjAddr: 0x9A3C, symBinAddr: 0x10002B268, symSize: 0x58 }
  - { offsetInCU: 0x1178C, offset: 0x473E7, size: 0x8, addend: 0x0, symName: __ZN13MyProxyShader8shadeRowEiiiPj, symObjAddr: 0x9A94, symBinAddr: 0x10002B2C0, symSize: 0x50 }
  - { offsetInCU: 0x117E8, offset: 0x47443, size: 0x8, addend: 0x0, symName: __ZN13MyProxyShaderD2Ev, symObjAddr: 0x9B04, symBinAddr: 0x10002B310, symSize: 0x2C }
  - { offsetInCU: 0x11812, offset: 0x4746D, size: 0x8, addend: 0x0, symName: __ZL10computeLinfRK6GPointS1_, symObjAddr: 0x9B44, symBinAddr: 0x10002B33C, symSize: 0xA4 }
  - { offsetInCU: 0x11868, offset: 0x474C3, size: 0x8, addend: 0x0, symName: __ZmlfRK6GColor, symObjAddr: 0x9BE8, symBinAddr: 0x10002B3E0, symSize: 0x4C }
  - { offsetInCU: 0x118A3, offset: 0x474FE, size: 0x8, addend: 0x0, symName: __ZNK6GColorplERKS_, symObjAddr: 0x9C34, symBinAddr: 0x10002B42C, symSize: 0x78 }
  - { offsetInCU: 0x118D4, offset: 0x4752F, size: 0x8, addend: 0x0, symName: __ZmlRK6GColorf, symObjAddr: 0x9CAC, symBinAddr: 0x10002B4A4, symSize: 0x74 }
  - { offsetInCU: 0x1190F, offset: 0x4756A, size: 0x8, addend: 0x0, symName: __ZN8MyCanvasC2ERK7GBitmap, symObjAddr: 0x9D20, symBinAddr: 0x10002B518, symSize: 0xB8 }
  - { offsetInCU: 0x11946, offset: 0x475A1, size: 0x8, addend: 0x0, symName: __ZN7GCanvasC2Ev, symObjAddr: 0x9DD8, symBinAddr: 0x10002B5D0, symSize: 0x24 }
  - { offsetInCU: 0x11971, offset: 0x475CC, size: 0x8, addend: 0x0, symName: __ZNSt3__16vectorI7GMatrixNS_9allocatorIS1_EEEC1B8ue170006Ev, symObjAddr: 0x9DFC, symBinAddr: 0x10002B5F4, symSize: 0x2C }
  - { offsetInCU: 0x1199A, offset: 0x475F5, size: 0x8, addend: 0x0, symName: __ZNSt3__16vectorI7GMatrixNS_9allocatorIS1_EEE9push_backB8ue170006EOS1_, symObjAddr: 0x9E28, symBinAddr: 0x10002B620, symSize: 0x6C }
  - { offsetInCU: 0x119D0, offset: 0x4762B, size: 0x8, addend: 0x0, symName: __ZNSt3__16vectorI7GMatrixNS_9allocatorIS1_EEED1B8ue170006Ev, symObjAddr: 0x9E94, symBinAddr: 0x10002B68C, symSize: 0x2C }
  - { offsetInCU: 0x119F9, offset: 0x47654, size: 0x8, addend: 0x0, symName: __ZN7GCanvasD2Ev, symObjAddr: 0x9EC0, symBinAddr: 0x10002B6B8, symSize: 0x14 }
  - { offsetInCU: 0x11A22, offset: 0x4767D, size: 0x8, addend: 0x0, symName: __ZN7GCanvasD1Ev, symObjAddr: 0x9ED4, symBinAddr: 0x10002B6CC, symSize: 0x14 }
  - { offsetInCU: 0x11A4B, offset: 0x476A6, size: 0x8, addend: 0x0, symName: __ZN7GCanvasD0Ev, symObjAddr: 0x9EE8, symBinAddr: 0x10002B6E0, symSize: 0xC }
  - { offsetInCU: 0x11A74, offset: 0x476CF, size: 0x8, addend: 0x0, symName: __ZNSt3__16vectorI7GMatrixNS_9allocatorIS1_EEEC2B8ue170006Ev, symObjAddr: 0x9EF4, symBinAddr: 0x10002B6EC, symSize: 0x4C }
  - { offsetInCU: 0x11AA3, offset: 0x476FE, size: 0x8, addend: 0x0, symName: __ZNSt3__117__compressed_pairIP7GMatrixNS_9allocatorIS1_EEEC1B8ue170006IDnNS_18__default_init_tagEEEOT_OT0_, symObjAddr: 0x9F40, symBinAddr: 0x10002B738, symSize: 0x3C }
  - { offsetInCU: 0x11AFA, offset: 0x47755, size: 0x8, addend: 0x0, symName: __ZNSt3__117__compressed_pairIP7GMatrixNS_9allocatorIS1_EEEC2B8ue170006IDnNS_18__default_init_tagEEEOT_OT0_, symObjAddr: 0x9F7C, symBinAddr: 0x10002B774, symSize: 0x40 }
  - { offsetInCU: 0x11B51, offset: 0x477AC, size: 0x8, addend: 0x0, symName: __ZNSt3__122__compressed_pair_elemIP7GMatrixLi0ELb0EEC2B8ue170006IDnvEEOT_, symObjAddr: 0x9FBC, symBinAddr: 0x10002B7B4, symSize: 0x1C }
  - { offsetInCU: 0x11B92, offset: 0x477ED, size: 0x8, addend: 0x0, symName: __ZNSt3__122__compressed_pair_elemINS_9allocatorI7GMatrixEELi1ELb1EEC2B8ue170006ENS_18__default_init_tagE, symObjAddr: 0x9FD8, symBinAddr: 0x10002B7D0, symSize: 0x2C }
  - { offsetInCU: 0x11BC6, offset: 0x47821, size: 0x8, addend: 0x0, symName: __ZNSt3__19allocatorI7GMatrixEC2B8ue170006Ev, symObjAddr: 0xA004, symBinAddr: 0x10002B7FC, symSize: 0x2C }
  - { offsetInCU: 0x11BEF, offset: 0x4784A, size: 0x8, addend: 0x0, symName: __ZNSt3__116__non_trivial_ifILb1ENS_9allocatorI7GMatrixEEEC2B8ue170006Ev, symObjAddr: 0xA030, symBinAddr: 0x10002B828, symSize: 0x14 }
  - { offsetInCU: 0x11C18, offset: 0x47873, size: 0x8, addend: 0x0, symName: __ZNSt3__16vectorI7GMatrixNS_9allocatorIS1_EEE9__end_capB8ue170006Ev, symObjAddr: 0xA044, symBinAddr: 0x10002B83C, symSize: 0x28 }
  - { offsetInCU: 0x11C42, offset: 0x4789D, size: 0x8, addend: 0x0, symName: __ZNSt3__16vectorI7GMatrixNS_9allocatorIS1_EEE22__construct_one_at_endB8ue170006IJS1_EEEvDpOT_, symObjAddr: 0xA06C, symBinAddr: 0x10002B864, symSize: 0x90 }
  - { offsetInCU: 0x11C8F, offset: 0x478EA, size: 0x8, addend: 0x0, symName: __ZNSt3__16vectorI7GMatrixNS_9allocatorIS1_EEE21__push_back_slow_pathIS1_EEvOT_, symObjAddr: 0xA0FC, symBinAddr: 0x10002B8F4, symSize: 0xD8 }
  - { offsetInCU: 0x11CEC, offset: 0x47947, size: 0x8, addend: 0x0, symName: __ZNSt3__117__compressed_pairIP7GMatrixNS_9allocatorIS1_EEE5firstB8ue170006Ev, symObjAddr: 0xA1D4, symBinAddr: 0x10002B9CC, symSize: 0x24 }
  - { offsetInCU: 0x11D10, offset: 0x4796B, size: 0x8, addend: 0x0, symName: __ZNSt3__122__compressed_pair_elemIP7GMatrixLi0ELb0EE5__getB8ue170006Ev, symObjAddr: 0xA1F8, symBinAddr: 0x10002B9F0, symSize: 0x14 }
  - { offsetInCU: 0x11D4D, offset: 0x479A8, size: 0x8, addend: 0x0, symName: __ZNSt3__16vectorI7GMatrixNS_9allocatorIS1_EEE21_ConstructTransactionC1B8ue170006ERS4_m, symObjAddr: 0xA20C, symBinAddr: 0x10002BA04, symSize: 0x3C }
  - { offsetInCU: 0x11D94, offset: 0x479EF, size: 0x8, addend: 0x0, symName: __ZNSt3__116allocator_traitsINS_9allocatorI7GMatrixEEE9constructB8ue170006IS2_JS2_EvEEvRS3_PT_DpOT0_, symObjAddr: 0xA248, symBinAddr: 0x10002BA40, symSize: 0x34 }
  - { offsetInCU: 0x11DEB, offset: 0x47A46, size: 0x8, addend: 0x0, symName: __ZNSt3__16vectorI7GMatrixNS_9allocatorIS1_EEE7__allocB8ue170006Ev, symObjAddr: 0xA27C, symBinAddr: 0x10002BA74, symSize: 0x28 }
  - { offsetInCU: 0x11E0F, offset: 0x47A6A, size: 0x8, addend: 0x0, symName: __ZNSt3__16vectorI7GMatrixNS_9allocatorIS1_EEE21_ConstructTransactionD1B8ue170006Ev, symObjAddr: 0xA2B8, symBinAddr: 0x10002BAB0, symSize: 0x2C }
  - { offsetInCU: 0x11E38, offset: 0x47A93, size: 0x8, addend: 0x0, symName: __ZNSt3__16vectorI7GMatrixNS_9allocatorIS1_EEE21_ConstructTransactionC2B8ue170006ERS4_m, symObjAddr: 0xA2E4, symBinAddr: 0x10002BADC, symSize: 0x4C }
  - { offsetInCU: 0x11E7F, offset: 0x47ADA, size: 0x8, addend: 0x0, symName: __ZNSt3__19allocatorI7GMatrixE9constructB8ue170006IS1_JS1_EEEvPT_DpOT0_, symObjAddr: 0xA330, symBinAddr: 0x10002BB28, symSize: 0x30 }
  - { offsetInCU: 0x11ED3, offset: 0x47B2E, size: 0x8, addend: 0x0, symName: __ZNSt3__117__compressed_pairIP7GMatrixNS_9allocatorIS1_EEE6secondB8ue170006Ev, symObjAddr: 0xA360, symBinAddr: 0x10002BB58, symSize: 0x24 }
  - { offsetInCU: 0x11EF7, offset: 0x47B52, size: 0x8, addend: 0x0, symName: __ZNSt3__122__compressed_pair_elemINS_9allocatorI7GMatrixEELi1ELb1EE5__getB8ue170006Ev, symObjAddr: 0xA384, symBinAddr: 0x10002BB7C, symSize: 0x14 }
  - { offsetInCU: 0x11F1B, offset: 0x47B76, size: 0x8, addend: 0x0, symName: __ZNSt3__16vectorI7GMatrixNS_9allocatorIS1_EEE21_ConstructTransactionD2B8ue170006Ev, symObjAddr: 0xA398, symBinAddr: 0x10002BB90, symSize: 0x20 }
  - { offsetInCU: 0x11F44, offset: 0x47B9F, size: 0x8, addend: 0x0, symName: __ZNKSt3__16vectorI7GMatrixNS_9allocatorIS1_EEE11__recommendB8ue170006Em, symObjAddr: 0xA3B8, symBinAddr: 0x10002BBB0, symSize: 0xB4 }
  - { offsetInCU: 0x11F98, offset: 0x47BF3, size: 0x8, addend: 0x0, symName: __ZNKSt3__16vectorI7GMatrixNS_9allocatorIS1_EEE4sizeB8ue170006Ev, symObjAddr: 0xA46C, symBinAddr: 0x10002BC64, symSize: 0x28 }
  - { offsetInCU: 0x11FBC, offset: 0x47C17, size: 0x8, addend: 0x0, symName: __ZNSt3__114__split_bufferI7GMatrixRNS_9allocatorIS1_EEEC1EmmS4_, symObjAddr: 0xA494, symBinAddr: 0x10002BC8C, symSize: 0x44 }
  - { offsetInCU: 0x12011, offset: 0x47C6C, size: 0x8, addend: 0x0, symName: __ZNSt3__114__split_bufferI7GMatrixRNS_9allocatorIS1_EEED1Ev, symObjAddr: 0xA5E8, symBinAddr: 0x10002BDE0, symSize: 0x2C }
  - { offsetInCU: 0x1203C, offset: 0x47C97, size: 0x8, addend: 0x0, symName: __ZNKSt3__16vectorI7GMatrixNS_9allocatorIS1_EEE8max_sizeEv, symObjAddr: 0xA614, symBinAddr: 0x10002BE0C, symSize: 0x60 }
  - { offsetInCU: 0x12063, offset: 0x47CBE, size: 0x8, addend: 0x0, symName: __ZNKSt3__16vectorI7GMatrixNS_9allocatorIS1_EEE20__throw_length_errorB8ue170006Ev, symObjAddr: 0xA674, symBinAddr: 0x10002BE6C, symSize: 0x1C }
  - { offsetInCU: 0x12087, offset: 0x47CE2, size: 0x8, addend: 0x0, symName: __ZNKSt3__16vectorI7GMatrixNS_9allocatorIS1_EEE8capacityB8ue170006Ev, symObjAddr: 0xA690, symBinAddr: 0x10002BE88, symSize: 0x40 }
  - { offsetInCU: 0x120B5, offset: 0x47D10, size: 0x8, addend: 0x0, symName: __ZNSt3__116allocator_traitsINS_9allocatorI7GMatrixEEE8max_sizeB8ue170006IS3_vEEmRKS3_, symObjAddr: 0xA6FC, symBinAddr: 0x10002BEC8, symSize: 0x24 }
  - { offsetInCU: 0x120E3, offset: 0x47D3E, size: 0x8, addend: 0x0, symName: __ZNKSt3__16vectorI7GMatrixNS_9allocatorIS1_EEE7__allocB8ue170006Ev, symObjAddr: 0xA720, symBinAddr: 0x10002BEEC, symSize: 0x28 }
  - { offsetInCU: 0x12107, offset: 0x47D62, size: 0x8, addend: 0x0, symName: __ZNKSt3__19allocatorI7GMatrixE8max_sizeB8ue170006Ev, symObjAddr: 0xA748, symBinAddr: 0x10002BF14, symSize: 0x18 }
  - { offsetInCU: 0x1212B, offset: 0x47D86, size: 0x8, addend: 0x0, symName: __ZNKSt3__117__compressed_pairIP7GMatrixNS_9allocatorIS1_EEE6secondB8ue170006Ev, symObjAddr: 0xA760, symBinAddr: 0x10002BF2C, symSize: 0x24 }
  - { offsetInCU: 0x1214F, offset: 0x47DAA, size: 0x8, addend: 0x0, symName: __ZNKSt3__122__compressed_pair_elemINS_9allocatorI7GMatrixEELi1ELb1EE5__getB8ue170006Ev, symObjAddr: 0xA784, symBinAddr: 0x10002BF50, symSize: 0x14 }
  - { offsetInCU: 0x12173, offset: 0x47DCE, size: 0x8, addend: 0x0, symName: __ZNKSt3__16vectorI7GMatrixNS_9allocatorIS1_EEE9__end_capB8ue170006Ev, symObjAddr: 0xA798, symBinAddr: 0x10002BF64, symSize: 0x28 }
  - { offsetInCU: 0x12197, offset: 0x47DF2, size: 0x8, addend: 0x0, symName: __ZNKSt3__117__compressed_pairIP7GMatrixNS_9allocatorIS1_EEE5firstB8ue170006Ev, symObjAddr: 0xA7C0, symBinAddr: 0x10002BF8C, symSize: 0x24 }
  - { offsetInCU: 0x121BB, offset: 0x47E16, size: 0x8, addend: 0x0, symName: __ZNKSt3__122__compressed_pair_elemIP7GMatrixLi0ELb0EE5__getB8ue170006Ev, symObjAddr: 0xA7E4, symBinAddr: 0x10002BFB0, symSize: 0x14 }
  - { offsetInCU: 0x121DF, offset: 0x47E3A, size: 0x8, addend: 0x0, symName: __ZNSt3__114__split_bufferI7GMatrixRNS_9allocatorIS1_EEEC2EmmS4_, symObjAddr: 0xA84C, symBinAddr: 0x10002BFC4, symSize: 0xE0 }
  - { offsetInCU: 0x12251, offset: 0x47EAC, size: 0x8, addend: 0x0, symName: __ZNSt3__117__compressed_pairIP7GMatrixRNS_9allocatorIS1_EEEC1B8ue170006IDnS5_EEOT_OT0_, symObjAddr: 0xA92C, symBinAddr: 0x10002C0A4, symSize: 0x3C }
  - { offsetInCU: 0x122A8, offset: 0x47F03, size: 0x8, addend: 0x0, symName: __ZNSt3__114__split_bufferI7GMatrixRNS_9allocatorIS1_EEE7__allocB8ue170006Ev, symObjAddr: 0xA9A8, symBinAddr: 0x10002C120, symSize: 0x28 }
  - { offsetInCU: 0x122CC, offset: 0x47F27, size: 0x8, addend: 0x0, symName: __ZNSt3__114__split_bufferI7GMatrixRNS_9allocatorIS1_EEE9__end_capB8ue170006Ev, symObjAddr: 0xA9D0, symBinAddr: 0x10002C148, symSize: 0x28 }
  - { offsetInCU: 0x122F0, offset: 0x47F4B, size: 0x8, addend: 0x0, symName: __ZNSt3__117__compressed_pairIP7GMatrixRNS_9allocatorIS1_EEEC2B8ue170006IDnS5_EEOT_OT0_, symObjAddr: 0xA9F8, symBinAddr: 0x10002C170, symSize: 0x48 }
  - { offsetInCU: 0x12347, offset: 0x47FA2, size: 0x8, addend: 0x0, symName: __ZNSt3__122__compressed_pair_elemIRNS_9allocatorI7GMatrixEELi1ELb0EEC2B8ue170006IS4_vEEOT_, symObjAddr: 0xAA40, symBinAddr: 0x10002C1B8, symSize: 0x20 }
  - { offsetInCU: 0x12388, offset: 0x47FE3, size: 0x8, addend: 0x0, symName: __ZNSt3__19allocatorI7GMatrixE8allocateB8ue170006Em, symObjAddr: 0xAA60, symBinAddr: 0x10002C1D8, symSize: 0x5C }
  - { offsetInCU: 0x123BA, offset: 0x48015, size: 0x8, addend: 0x0, symName: __ZNSt3__117__compressed_pairIP7GMatrixRNS_9allocatorIS1_EEE6secondB8ue170006Ev, symObjAddr: 0xAABC, symBinAddr: 0x10002C234, symSize: 0x28 }
  - { offsetInCU: 0x123DE, offset: 0x48039, size: 0x8, addend: 0x0, symName: __ZNSt3__122__compressed_pair_elemIRNS_9allocatorI7GMatrixEELi1ELb0EE5__getB8ue170006Ev, symObjAddr: 0xAAE4, symBinAddr: 0x10002C25C, symSize: 0x18 }
  - { offsetInCU: 0x12402, offset: 0x4805D, size: 0x8, addend: 0x0, symName: __ZNSt3__117__compressed_pairIP7GMatrixRNS_9allocatorIS1_EEE5firstB8ue170006Ev, symObjAddr: 0xAAFC, symBinAddr: 0x10002C274, symSize: 0x24 }
  - { offsetInCU: 0x12426, offset: 0x48081, size: 0x8, addend: 0x0, symName: __ZNKSt3__16vectorI7GMatrixNS_9allocatorIS1_EEE17__annotate_deleteB8ue170006Ev, symObjAddr: 0xAB20, symBinAddr: 0x10002C298, symSize: 0xD4 }
  - { offsetInCU: 0x1244A, offset: 0x480A5, size: 0x8, addend: 0x0, symName: __ZNSt3__116reverse_iteratorIP7GMatrixEC1B8ue170006ES2_, symObjAddr: 0xAC6C, symBinAddr: 0x10002C3E4, symSize: 0x34 }
  - { offsetInCU: 0x12481, offset: 0x480DC, size: 0x8, addend: 0x0, symName: __ZNKSt3__116reverse_iteratorIP7GMatrixE4baseB8ue170006Ev, symObjAddr: 0xACA0, symBinAddr: 0x10002C418, symSize: 0x18 }
  - { offsetInCU: 0x124A5, offset: 0x48100, size: 0x8, addend: 0x0, symName: __ZNKSt3__16vectorI7GMatrixNS_9allocatorIS1_EEE14__annotate_newB8ue170006Em, symObjAddr: 0xACF4, symBinAddr: 0x10002C46C, symSize: 0xC8 }
  - { offsetInCU: 0x124D8, offset: 0x48133, size: 0x8, addend: 0x0, symName: __ZNKSt3__16vectorI7GMatrixNS_9allocatorIS1_EEE31__annotate_contiguous_containerB8ue170006EPKvS6_S6_S6_, symObjAddr: 0xADBC, symBinAddr: 0x10002C534, symSize: 0x20 }
  - { offsetInCU: 0x12528, offset: 0x48183, size: 0x8, addend: 0x0, symName: __ZNKSt3__16vectorI7GMatrixNS_9allocatorIS1_EEE4dataB8ue170006Ev, symObjAddr: 0xADDC, symBinAddr: 0x10002C554, symSize: 0x28 }
  - { offsetInCU: 0x12570, offset: 0x481CB, size: 0x8, addend: 0x0, symName: __ZNKSt3__111__move_loopINS_17_ClassicAlgPolicyEEclB8ue170006INS_16reverse_iteratorIP7GMatrixEES7_S7_EENS_4pairIT_T1_EES9_T0_SA_, symObjAddr: 0xB0F4, symBinAddr: 0x10002C86C, symSize: 0xA8 }
  - { offsetInCU: 0x125D9, offset: 0x48234, size: 0x8, addend: 0x0, symName: __ZNSt3__18_IterOpsINS_17_ClassicAlgPolicyEE11__iter_moveB8ue170006IRNS_16reverse_iteratorIP7GMatrixEEEENS_9enable_ifIXsr12is_referenceIDTdeclsr3stdE7declvalIRT_EEEEE5valueEDTclsr3stdE4movedeclsr3stdE7declvalISB_EEEEE4typeEOSA_, symObjAddr: 0xB330, symBinAddr: 0x10002CAA8, symSize: 0x28 }
  - { offsetInCU: 0x12605, offset: 0x48260, size: 0x8, addend: 0x0, symName: __ZNKSt3__116reverse_iteratorIP7GMatrixEdeB8ue170006Ev, symObjAddr: 0xB358, symBinAddr: 0x10002CAD0, symSize: 0x28 }
  - { offsetInCU: 0x12637, offset: 0x48292, size: 0x8, addend: 0x0, symName: __ZNSt3__116reverse_iteratorIP7GMatrixEppB8ue170006Ev, symObjAddr: 0xB380, symBinAddr: 0x10002CAF8, symSize: 0x20 }
  - { offsetInCU: 0x1265B, offset: 0x482B6, size: 0x8, addend: 0x0, symName: __ZNSt3__18_IterOpsINS_17_ClassicAlgPolicyEE25__validate_iter_referenceB8ue170006IRNS_16reverse_iteratorIP7GMatrixEEEEvv, symObjAddr: 0xB3A0, symBinAddr: 0x10002CB18, symSize: 0x4 }
  - { offsetInCU: 0x12679, offset: 0x482D4, size: 0x8, addend: 0x0, symName: __ZNSt3__118__unwrap_iter_implINS_16reverse_iteratorIP7GMatrixEELb0EE8__unwrapB8ue170006ES4_, symObjAddr: 0xB3A4, symBinAddr: 0x10002CB1C, symSize: 0x24 }
  - { offsetInCU: 0x126A2, offset: 0x482FD, size: 0x8, addend: 0x0, symName: __ZNSt3__14pairINS_16reverse_iteratorIP7GMatrixEES4_EC1B8ue170006IS4_S4_LPv0EEEOT_OT0_, symObjAddr: 0xB3C8, symBinAddr: 0x10002CB40, symSize: 0x3C }
  - { offsetInCU: 0x126FF, offset: 0x4835A, size: 0x8, addend: 0x0, symName: __ZNSt3__14pairINS_16reverse_iteratorIP7GMatrixEES4_EC2B8ue170006IS4_S4_LPv0EEEOT_OT0_, symObjAddr: 0xB404, symBinAddr: 0x10002CB7C, symSize: 0x34 }
  - { offsetInCU: 0x1275C, offset: 0x483B7, size: 0x8, addend: 0x0, symName: __ZNSt3__118__unwrap_iter_implINS_16reverse_iteratorIP7GMatrixEELb0EE8__rewrapB8ue170006ES4_S4_, symObjAddr: 0xB438, symBinAddr: 0x10002CBB0, symSize: 0x2C }
  - { offsetInCU: 0x1278A, offset: 0x483E5, size: 0x8, addend: 0x0, symName: __ZNSt3__116reverse_iteratorIP7GMatrixEC2B8ue170006ES2_, symObjAddr: 0xB464, symBinAddr: 0x10002CBDC, symSize: 0x28 }
  - { offsetInCU: 0x127C1, offset: 0x4841C, size: 0x8, addend: 0x0, symName: __ZNSt3__114__split_bufferI7GMatrixRNS_9allocatorIS1_EEED2Ev, symObjAddr: 0xB48C, symBinAddr: 0x10002CC04, symSize: 0x8C }
  - { offsetInCU: 0x127EC, offset: 0x48447, size: 0x8, addend: 0x0, symName: __ZNSt3__114__split_bufferI7GMatrixRNS_9allocatorIS1_EEE5clearB8ue170006Ev, symObjAddr: 0xB518, symBinAddr: 0x10002CC90, symSize: 0x28 }
  - { offsetInCU: 0x12810, offset: 0x4846B, size: 0x8, addend: 0x0, symName: __ZNSt3__116allocator_traitsINS_9allocatorI7GMatrixEEE10deallocateB8ue170006ERS3_PS2_m, symObjAddr: 0xB540, symBinAddr: 0x10002CCB8, symSize: 0x34 }
  - { offsetInCU: 0x12852, offset: 0x484AD, size: 0x8, addend: 0x0, symName: __ZNKSt3__114__split_bufferI7GMatrixRNS_9allocatorIS1_EEE8capacityB8ue170006Ev, symObjAddr: 0xB574, symBinAddr: 0x10002CCEC, symSize: 0x40 }
  - { offsetInCU: 0x12876, offset: 0x484D1, size: 0x8, addend: 0x0, symName: __ZNSt3__114__split_bufferI7GMatrixRNS_9allocatorIS1_EEE17__destruct_at_endB8ue170006EPS1_, symObjAddr: 0xB5B4, symBinAddr: 0x10002CD2C, symSize: 0x2C }
  - { offsetInCU: 0x128A8, offset: 0x48503, size: 0x8, addend: 0x0, symName: __ZNSt3__114__split_bufferI7GMatrixRNS_9allocatorIS1_EEE17__destruct_at_endB8ue170006EPS1_NS_17integral_constantIbLb0EEE, symObjAddr: 0xB5E0, symBinAddr: 0x10002CD58, symSize: 0x80 }
  - { offsetInCU: 0x128E8, offset: 0x48543, size: 0x8, addend: 0x0, symName: __ZNSt3__116allocator_traitsINS_9allocatorI7GMatrixEEE7destroyB8ue170006IS2_vEEvRS3_PT_, symObjAddr: 0xB660, symBinAddr: 0x10002CDD8, symSize: 0x2C }
  - { offsetInCU: 0x12925, offset: 0x48580, size: 0x8, addend: 0x0, symName: __ZNSt3__19allocatorI7GMatrixE7destroyB8ue170006EPS1_, symObjAddr: 0xB68C, symBinAddr: 0x10002CE04, symSize: 0x14 }
  - { offsetInCU: 0x12957, offset: 0x485B2, size: 0x8, addend: 0x0, symName: __ZNSt3__19allocatorI7GMatrixE10deallocateB8ue170006EPS1_m, symObjAddr: 0xB6A0, symBinAddr: 0x10002CE18, symSize: 0x44 }
  - { offsetInCU: 0x12997, offset: 0x485F2, size: 0x8, addend: 0x0, symName: __ZNKSt3__114__split_bufferI7GMatrixRNS_9allocatorIS1_EEE9__end_capB8ue170006Ev, symObjAddr: 0xB6E4, symBinAddr: 0x10002CE5C, symSize: 0x28 }
  - { offsetInCU: 0x129BB, offset: 0x48616, size: 0x8, addend: 0x0, symName: __ZNKSt3__117__compressed_pairIP7GMatrixRNS_9allocatorIS1_EEE5firstB8ue170006Ev, symObjAddr: 0xB70C, symBinAddr: 0x10002CE84, symSize: 0x24 }
  - { offsetInCU: 0x129DF, offset: 0x4863A, size: 0x8, addend: 0x0, symName: __ZNSt3__16vectorI7GMatrixNS_9allocatorIS1_EEED2B8ue170006Ev, symObjAddr: 0xB730, symBinAddr: 0x10002CEA8, symSize: 0x44 }
  - { offsetInCU: 0x12A08, offset: 0x48663, size: 0x8, addend: 0x0, symName: __ZNSt3__16vectorI7GMatrixNS_9allocatorIS1_EEE16__destroy_vectorC1B8ue170006ERS4_, symObjAddr: 0xB774, symBinAddr: 0x10002CEEC, symSize: 0x34 }
  - { offsetInCU: 0x12A40, offset: 0x4869B, size: 0x8, addend: 0x0, symName: __ZNSt3__16vectorI7GMatrixNS_9allocatorIS1_EEE16__destroy_vectorclB8ue170006Ev, symObjAddr: 0xB7A8, symBinAddr: 0x10002CF20, symSize: 0x90 }
  - { offsetInCU: 0x12A64, offset: 0x486BF, size: 0x8, addend: 0x0, symName: __ZNSt3__16vectorI7GMatrixNS_9allocatorIS1_EEE16__destroy_vectorC2B8ue170006ERS4_, symObjAddr: 0xB838, symBinAddr: 0x10002CFB0, symSize: 0x20 }
  - { offsetInCU: 0x12A9C, offset: 0x486F7, size: 0x8, addend: 0x0, symName: __ZNSt3__16vectorI7GMatrixNS_9allocatorIS1_EEE7__clearB8ue170006Ev, symObjAddr: 0xB858, symBinAddr: 0x10002CFD0, symSize: 0x28 }
  - { offsetInCU: 0x12AC0, offset: 0x4871B, size: 0x8, addend: 0x0, symName: __ZNSt3__16vectorI7GMatrixNS_9allocatorIS1_EEE22__base_destruct_at_endB8ue170006EPS1_, symObjAddr: 0xB880, symBinAddr: 0x10002CFF8, symSize: 0x8C }
  - { offsetInCU: 0x12B02, offset: 0x4875D, size: 0x8, addend: 0x0, symName: __ZN7GBitmapC2Ev, symObjAddr: 0xB90C, symBinAddr: 0x10002D084, symSize: 0x2C }
  - { offsetInCU: 0x12B2B, offset: 0x48786, size: 0x8, addend: 0x0, symName: __ZN7GBitmap5resetEv, symObjAddr: 0xB938, symBinAddr: 0x10002D0B0, symSize: 0x28 }
  - { offsetInCU: 0x12B4F, offset: 0x487AA, size: 0x8, addend: 0x0, symName: __ZN6GPaintC2EP7GShader, symObjAddr: 0xB960, symBinAddr: 0x10002D0D8, symSize: 0x40 }
  - { offsetInCU: 0x12B86, offset: 0x487E1, size: 0x8, addend: 0x0, symName: __ZN8MyCanvasD2Ev, symObjAddr: 0xB9A0, symBinAddr: 0x10002D118, symSize: 0x48 }
  - { offsetInCU: 0x12BB1, offset: 0x4880C, size: 0x8, addend: 0x0, symName: __ZNSt3__110unique_ptrI7GShaderNS_14default_deleteIS1_EEED2B8ue170006Ev, symObjAddr: 0xB9E8, symBinAddr: 0x10002D160, symSize: 0x30 }
  - { offsetInCU: 0x12BDA, offset: 0x48835, size: 0x8, addend: 0x0, symName: __ZNSt3__110unique_ptrI7GShaderNS_14default_deleteIS1_EEE5resetB8ue170006EPS1_, symObjAddr: 0xBA18, symBinAddr: 0x10002D190, symSize: 0x78 }
  - { offsetInCU: 0x12C1C, offset: 0x48877, size: 0x8, addend: 0x0, symName: __ZNSt3__117__compressed_pairIP7GShaderNS_14default_deleteIS1_EEE5firstB8ue170006Ev, symObjAddr: 0xBA90, symBinAddr: 0x10002D208, symSize: 0x24 }
  - { offsetInCU: 0x12C40, offset: 0x4889B, size: 0x8, addend: 0x0, symName: __ZNSt3__117__compressed_pairIP7GShaderNS_14default_deleteIS1_EEE6secondB8ue170006Ev, symObjAddr: 0xBAB4, symBinAddr: 0x10002D22C, symSize: 0x24 }
  - { offsetInCU: 0x12C64, offset: 0x488BF, size: 0x8, addend: 0x0, symName: __ZNKSt3__114default_deleteI7GShaderEclB8ue170006EPS1_, symObjAddr: 0xBAD8, symBinAddr: 0x10002D250, symSize: 0x4C }
  - { offsetInCU: 0x12C96, offset: 0x488F1, size: 0x8, addend: 0x0, symName: __ZNSt3__122__compressed_pair_elemIP7GShaderLi0ELb0EE5__getB8ue170006Ev, symObjAddr: 0xBB24, symBinAddr: 0x10002D29C, symSize: 0x14 }
  - { offsetInCU: 0x12CBA, offset: 0x48915, size: 0x8, addend: 0x0, symName: __ZNSt3__122__compressed_pair_elemINS_14default_deleteI7GShaderEELi1ELb1EE5__getB8ue170006Ev, symObjAddr: 0xBB38, symBinAddr: 0x10002D2B0, symSize: 0x14 }
  - { offsetInCU: 0x12CDE, offset: 0x48939, size: 0x8, addend: 0x0, symName: __ZNSt3__112basic_stringIcNS_11char_traitsIcEENS_9allocatorIcEEEC2B8ue170006ILi0EEEPKc, symObjAddr: 0xBB4C, symBinAddr: 0x10002D2C4, symSize: 0x58 }
  - { offsetInCU: 0x12D1C, offset: 0x48977, size: 0x8, addend: 0x0, symName: __ZNSt3__117__compressed_pairINS_12basic_stringIcNS_11char_traitsIcEENS_9allocatorIcEEE5__repES5_EC1B8ue170006INS_18__default_init_tagESA_EEOT_OT0_, symObjAddr: 0xBBA4, symBinAddr: 0x10002D31C, symSize: 0x3C }
  - { offsetInCU: 0x12D73, offset: 0x489CE, size: 0x8, addend: 0x0, symName: __ZNSt3__111char_traitsIcE6lengthB8ue170006EPKc, symObjAddr: 0xBBE0, symBinAddr: 0x10002D358, symSize: 0x34 }
  - { offsetInCU: 0x12D96, offset: 0x489F1, size: 0x8, addend: 0x0, symName: __ZNSt3__117__compressed_pairINS_12basic_stringIcNS_11char_traitsIcEENS_9allocatorIcEEE5__repES5_EC2B8ue170006INS_18__default_init_tagESA_EEOT_OT0_, symObjAddr: 0xBC14, symBinAddr: 0x10002D38C, symSize: 0x3C }
  - { offsetInCU: 0x12DED, offset: 0x48A48, size: 0x8, addend: 0x0, symName: __ZNSt3__122__compressed_pair_elemINS_12basic_stringIcNS_11char_traitsIcEENS_9allocatorIcEEE5__repELi0ELb0EEC2B8ue170006ENS_18__default_init_tagE, symObjAddr: 0xBC50, symBinAddr: 0x10002D3C8, symSize: 0x14 }
  - { offsetInCU: 0x12E21, offset: 0x48A7C, size: 0x8, addend: 0x0, symName: __ZNSt3__122__compressed_pair_elemINS_9allocatorIcEELi1ELb1EEC2B8ue170006ENS_18__default_init_tagE, symObjAddr: 0xBC64, symBinAddr: 0x10002D3DC, symSize: 0x2C }
  - { offsetInCU: 0x12E55, offset: 0x48AB0, size: 0x8, addend: 0x0, symName: __ZNSt3__19allocatorIcEC2B8ue170006Ev, symObjAddr: 0xBC90, symBinAddr: 0x10002D408, symSize: 0x2C }
  - { offsetInCU: 0x12E7E, offset: 0x48AD9, size: 0x8, addend: 0x0, symName: __ZNSt3__116__non_trivial_ifILb1ENS_9allocatorIcEEEC2B8ue170006Ev, symObjAddr: 0xBCBC, symBinAddr: 0x10002D434, symSize: 0x14 }
  - { offsetInCU: 0x12EA7, offset: 0x48B02, size: 0x8, addend: 0x0, symName: __ZNSt3__16vectorI7GMatrixNS_9allocatorIS1_EEE22__construct_one_at_endB8ue170006IJRKS1_EEEvDpOT_, symObjAddr: 0xBCF4, symBinAddr: 0x10002D46C, symSize: 0x90 }
  - { offsetInCU: 0x12EF4, offset: 0x48B4F, size: 0x8, addend: 0x0, symName: __ZNSt3__16vectorI7GMatrixNS_9allocatorIS1_EEE21__push_back_slow_pathIRKS1_EEvOT_, symObjAddr: 0xBD84, symBinAddr: 0x10002D4FC, symSize: 0xD8 }
  - { offsetInCU: 0x12F51, offset: 0x48BAC, size: 0x8, addend: 0x0, symName: __ZNSt3__116allocator_traitsINS_9allocatorI7GMatrixEEE9constructB8ue170006IS2_JRKS2_EvEEvRS3_PT_DpOT0_, symObjAddr: 0xBE5C, symBinAddr: 0x10002D5D4, symSize: 0x34 }
  - { offsetInCU: 0x12FA8, offset: 0x48C03, size: 0x8, addend: 0x0, symName: __ZNSt3__19allocatorI7GMatrixE9constructB8ue170006IS1_JRKS1_EEEvPT_DpOT0_, symObjAddr: 0xBE90, symBinAddr: 0x10002D608, symSize: 0x30 }
  - { offsetInCU: 0x12FFC, offset: 0x48C57, size: 0x8, addend: 0x0, symName: __ZNSt3__16vectorI7GMatrixNS_9allocatorIS1_EEE17__destruct_at_endB8ue170006EPS1_, symObjAddr: 0xBEC0, symBinAddr: 0x10002D638, symSize: 0x4C }
  - { offsetInCU: 0x1303E, offset: 0x48C99, size: 0x8, addend: 0x0, symName: __ZNKSt3__16vectorI7GMatrixNS_9allocatorIS1_EEE17__annotate_shrinkB8ue170006Em, symObjAddr: 0xBF0C, symBinAddr: 0x10002D684, symSize: 0xD0 }
  - { offsetInCU: 0x13071, offset: 0x48CCC, size: 0x8, addend: 0x0, symName: __ZNSt3__16vectorI4EdgeNS_9allocatorIS1_EEEC2B8ue170006Ev, symObjAddr: 0xBFDC, symBinAddr: 0x10002D754, symSize: 0x4C }
  - { offsetInCU: 0x1309A, offset: 0x48CF5, size: 0x8, addend: 0x0, symName: __ZNSt3__117__compressed_pairIP4EdgeNS_9allocatorIS1_EEEC1B8ue170006IDnNS_18__default_init_tagEEEOT_OT0_, symObjAddr: 0xC028, symBinAddr: 0x10002D7A0, symSize: 0x3C }
  - { offsetInCU: 0x130F1, offset: 0x48D4C, size: 0x8, addend: 0x0, symName: __ZNSt3__117__compressed_pairIP4EdgeNS_9allocatorIS1_EEEC2B8ue170006IDnNS_18__default_init_tagEEEOT_OT0_, symObjAddr: 0xC064, symBinAddr: 0x10002D7DC, symSize: 0x40 }
  - { offsetInCU: 0x13148, offset: 0x48DA3, size: 0x8, addend: 0x0, symName: __ZNSt3__122__compressed_pair_elemIP4EdgeLi0ELb0EEC2B8ue170006IDnvEEOT_, symObjAddr: 0xC0A4, symBinAddr: 0x10002D81C, symSize: 0x1C }
  - { offsetInCU: 0x13189, offset: 0x48DE4, size: 0x8, addend: 0x0, symName: __ZNSt3__122__compressed_pair_elemINS_9allocatorI4EdgeEELi1ELb1EEC2B8ue170006ENS_18__default_init_tagE, symObjAddr: 0xC0C0, symBinAddr: 0x10002D838, symSize: 0x2C }
  - { offsetInCU: 0x131BD, offset: 0x48E18, size: 0x8, addend: 0x0, symName: __ZNSt3__19allocatorI4EdgeEC2B8ue170006Ev, symObjAddr: 0xC0EC, symBinAddr: 0x10002D864, symSize: 0x2C }
  - { offsetInCU: 0x131E6, offset: 0x48E41, size: 0x8, addend: 0x0, symName: __ZNSt3__116__non_trivial_ifILb1ENS_9allocatorI4EdgeEEEC2B8ue170006Ev, symObjAddr: 0xC118, symBinAddr: 0x10002D890, symSize: 0x14 }
  - { offsetInCU: 0x1320F, offset: 0x48E6A, size: 0x8, addend: 0x0, symName: __ZNKSt3__16vectorI4EdgeNS_9allocatorIS1_EEE20__throw_out_of_rangeB8ue170006Ev, symObjAddr: 0xC12C, symBinAddr: 0x10002D8A4, symSize: 0x1C }
  - { offsetInCU: 0x13233, offset: 0x48E8E, size: 0x8, addend: 0x0, symName: __ZNSt12out_of_rangeC1B8ue170006EPKc, symObjAddr: 0xC1AC, symBinAddr: 0x10002D924, symSize: 0x34 }
  - { offsetInCU: 0x1326A, offset: 0x48EC5, size: 0x8, addend: 0x0, symName: __ZNSt12out_of_rangeC2B8ue170006EPKc, symObjAddr: 0xC1E0, symBinAddr: 0x10002D958, symSize: 0x4C }
  - { offsetInCU: 0x132A6, offset: 0x48F01, size: 0x8, addend: 0x0, symName: __ZNSt3__18_IterOpsINS_17_ClassicAlgPolicyEE9iter_swapB8ue170006IRPP4EdgeS7_EEvOT_OT0_, symObjAddr: 0xC828, symBinAddr: 0x10002DFA0, symSize: 0x34 }
  - { offsetInCU: 0x132EF, offset: 0x48F4A, size: 0x8, addend: 0x0, symName: __ZNSt3__18_IterOpsINS_17_ClassicAlgPolicyEE9iter_swapB8ue170006IRPP4EdgeS6_EEvOT_OT0_, symObjAddr: 0xCDD4, symBinAddr: 0x10002E54C, symSize: 0x34 }
  - { offsetInCU: 0x13338, offset: 0x48F93, size: 0x8, addend: 0x0, symName: __ZNSt3__18_IterOpsINS_17_ClassicAlgPolicyEE11__iter_moveB8ue170006IRPP4EdgeEENS_9enable_ifIXsr12is_referenceIDTdeclsr3stdE7declvalIRT_EEEEE5valueEDTclsr3stdE4movedeclsr3stdE7declvalISA_EEEEE4typeEOS9_, symObjAddr: 0xDB20, symBinAddr: 0x10002F298, symSize: 0x28 }
  - { offsetInCU: 0x13364, offset: 0x48FBF, size: 0x8, addend: 0x0, symName: __ZNSt3__18_IterOpsINS_17_ClassicAlgPolicyEE25__validate_iter_referenceB8ue170006IRPP4EdgeEEvv, symObjAddr: 0xDB48, symBinAddr: 0x10002F2C0, symSize: 0x4 }
  - { offsetInCU: 0x13382, offset: 0x48FDD, size: 0x8, addend: 0x0, symName: __ZNSt3__18_IterOpsINS_17_ClassicAlgPolicyEE4nextB8ue170006IPP4EdgeEET_S7_S7_, symObjAddr: 0xDB4C, symBinAddr: 0x10002F2C4, symSize: 0x18 }
  - { offsetInCU: 0x133B9, offset: 0x49014, size: 0x8, addend: 0x0, symName: __ZNSt3__18_IterOpsINS_17_ClassicAlgPolicyEE9iter_swapB8ue170006IPP4EdgeS6_EEvOT_OT0_, symObjAddr: 0xEB00, symBinAddr: 0x100030278, symSize: 0x34 }
  - { offsetInCU: 0x1341B, offset: 0x49076, size: 0x8, addend: 0x0, symName: __ZNSt3__14pairIPP4EdgebEC1B8ue170006IRS3_RbLPv0EEEOT_OT0_, symObjAddr: 0xEB50, symBinAddr: 0x1000302C8, symSize: 0x3C }
  - { offsetInCU: 0x13478, offset: 0x490D3, size: 0x8, addend: 0x0, symName: __ZNSt3__14pairIPP4EdgebEC2B8ue170006IRS3_RbLPv0EEEOT_OT0_, symObjAddr: 0xEB8C, symBinAddr: 0x100030304, symSize: 0x38 }
  - { offsetInCU: 0x134D5, offset: 0x49130, size: 0x8, addend: 0x0, symName: __ZNSt3__118__unwrap_iter_implIPP4EdgeLb1EE8__unwrapB8ue170006ES3_, symObjAddr: 0xEBC4, symBinAddr: 0x10003033C, symSize: 0x24 }
  - { offsetInCU: 0x134F8, offset: 0x49153, size: 0x8, addend: 0x0, symName: __ZNSt3__16vectorI4EdgeNS_9allocatorIS1_EEE9__end_capB8ue170006Ev, symObjAddr: 0xEBFC, symBinAddr: 0x100030374, symSize: 0x28 }
  - { offsetInCU: 0x13522, offset: 0x4917D, size: 0x8, addend: 0x0, symName: __ZNSt3__16vectorI4EdgeNS_9allocatorIS1_EEE22__construct_one_at_endB8ue170006IJS1_EEEvDpOT_, symObjAddr: 0xEC24, symBinAddr: 0x10003039C, symSize: 0x90 }
  - { offsetInCU: 0x1356F, offset: 0x491CA, size: 0x8, addend: 0x0, symName: __ZNSt3__16vectorI4EdgeNS_9allocatorIS1_EEE21__push_back_slow_pathIS1_EEvOT_, symObjAddr: 0xECB4, symBinAddr: 0x10003042C, symSize: 0xD8 }
  - { offsetInCU: 0x135CC, offset: 0x49227, size: 0x8, addend: 0x0, symName: __ZNSt3__117__compressed_pairIP4EdgeNS_9allocatorIS1_EEE5firstB8ue170006Ev, symObjAddr: 0xED8C, symBinAddr: 0x100030504, symSize: 0x24 }
  - { offsetInCU: 0x135F0, offset: 0x4924B, size: 0x8, addend: 0x0, symName: __ZNSt3__122__compressed_pair_elemIP4EdgeLi0ELb0EE5__getB8ue170006Ev, symObjAddr: 0xEDB0, symBinAddr: 0x100030528, symSize: 0x14 }
  - { offsetInCU: 0x1362D, offset: 0x49288, size: 0x8, addend: 0x0, symName: __ZNSt3__16vectorI4EdgeNS_9allocatorIS1_EEE21_ConstructTransactionC1B8ue170006ERS4_m, symObjAddr: 0xEDC4, symBinAddr: 0x10003053C, symSize: 0x3C }
  - { offsetInCU: 0x13674, offset: 0x492CF, size: 0x8, addend: 0x0, symName: __ZNSt3__116allocator_traitsINS_9allocatorI4EdgeEEE9constructB8ue170006IS2_JS2_EvEEvRS3_PT_DpOT0_, symObjAddr: 0xEE00, symBinAddr: 0x100030578, symSize: 0x34 }
  - { offsetInCU: 0x136CB, offset: 0x49326, size: 0x8, addend: 0x0, symName: __ZNSt3__16vectorI4EdgeNS_9allocatorIS1_EEE7__allocB8ue170006Ev, symObjAddr: 0xEE34, symBinAddr: 0x1000305AC, symSize: 0x28 }
  - { offsetInCU: 0x136EF, offset: 0x4934A, size: 0x8, addend: 0x0, symName: __ZNSt3__16vectorI4EdgeNS_9allocatorIS1_EEE21_ConstructTransactionD1B8ue170006Ev, symObjAddr: 0xEE70, symBinAddr: 0x1000305E8, symSize: 0x2C }
  - { offsetInCU: 0x13718, offset: 0x49373, size: 0x8, addend: 0x0, symName: __ZNSt3__16vectorI4EdgeNS_9allocatorIS1_EEE21_ConstructTransactionC2B8ue170006ERS4_m, symObjAddr: 0xEE9C, symBinAddr: 0x100030614, symSize: 0x4C }
  - { offsetInCU: 0x1375F, offset: 0x493BA, size: 0x8, addend: 0x0, symName: __ZNSt3__19allocatorI4EdgeE9constructB8ue170006IS1_JS1_EEEvPT_DpOT0_, symObjAddr: 0xEEE8, symBinAddr: 0x100030660, symSize: 0x30 }
  - { offsetInCU: 0x137B3, offset: 0x4940E, size: 0x8, addend: 0x0, symName: __ZNSt3__117__compressed_pairIP4EdgeNS_9allocatorIS1_EEE6secondB8ue170006Ev, symObjAddr: 0xEF18, symBinAddr: 0x100030690, symSize: 0x24 }
  - { offsetInCU: 0x137D7, offset: 0x49432, size: 0x8, addend: 0x0, symName: __ZNSt3__122__compressed_pair_elemINS_9allocatorI4EdgeEELi1ELb1EE5__getB8ue170006Ev, symObjAddr: 0xEF3C, symBinAddr: 0x1000306B4, symSize: 0x14 }
  - { offsetInCU: 0x137FB, offset: 0x49456, size: 0x8, addend: 0x0, symName: __ZNSt3__16vectorI4EdgeNS_9allocatorIS1_EEE21_ConstructTransactionD2B8ue170006Ev, symObjAddr: 0xEF50, symBinAddr: 0x1000306C8, symSize: 0x20 }
  - { offsetInCU: 0x13824, offset: 0x4947F, size: 0x8, addend: 0x0, symName: __ZNKSt3__16vectorI4EdgeNS_9allocatorIS1_EEE11__recommendB8ue170006Em, symObjAddr: 0xEF70, symBinAddr: 0x1000306E8, symSize: 0xB4 }
  - { offsetInCU: 0x13878, offset: 0x494D3, size: 0x8, addend: 0x0, symName: __ZNSt3__114__split_bufferI4EdgeRNS_9allocatorIS1_EEEC1EmmS4_, symObjAddr: 0xF024, symBinAddr: 0x10003079C, symSize: 0x44 }
  - { offsetInCU: 0x138CD, offset: 0x49528, size: 0x8, addend: 0x0, symName: __ZNSt3__114__split_bufferI4EdgeRNS_9allocatorIS1_EEED1Ev, symObjAddr: 0xF178, symBinAddr: 0x1000308F0, symSize: 0x2C }
  - { offsetInCU: 0x138F8, offset: 0x49553, size: 0x8, addend: 0x0, symName: __ZNKSt3__16vectorI4EdgeNS_9allocatorIS1_EEE8max_sizeEv, symObjAddr: 0xF1A4, symBinAddr: 0x10003091C, symSize: 0x60 }
  - { offsetInCU: 0x1391F, offset: 0x4957A, size: 0x8, addend: 0x0, symName: __ZNKSt3__16vectorI4EdgeNS_9allocatorIS1_EEE20__throw_length_errorB8ue170006Ev, symObjAddr: 0xF204, symBinAddr: 0x10003097C, symSize: 0x1C }
  - { offsetInCU: 0x13943, offset: 0x4959E, size: 0x8, addend: 0x0, symName: __ZNKSt3__16vectorI4EdgeNS_9allocatorIS1_EEE8capacityB8ue170006Ev, symObjAddr: 0xF220, symBinAddr: 0x100030998, symSize: 0x40 }
  - { offsetInCU: 0x13971, offset: 0x495CC, size: 0x8, addend: 0x0, symName: __ZNSt3__116allocator_traitsINS_9allocatorI4EdgeEEE8max_sizeB8ue170006IS3_vEEmRKS3_, symObjAddr: 0xF260, symBinAddr: 0x1000309D8, symSize: 0x24 }
  - { offsetInCU: 0x1399F, offset: 0x495FA, size: 0x8, addend: 0x0, symName: __ZNKSt3__16vectorI4EdgeNS_9allocatorIS1_EEE7__allocB8ue170006Ev, symObjAddr: 0xF284, symBinAddr: 0x1000309FC, symSize: 0x28 }
  - { offsetInCU: 0x139C3, offset: 0x4961E, size: 0x8, addend: 0x0, symName: __ZNKSt3__19allocatorI4EdgeE8max_sizeB8ue170006Ev, symObjAddr: 0xF2AC, symBinAddr: 0x100030A24, symSize: 0x18 }
  - { offsetInCU: 0x139E7, offset: 0x49642, size: 0x8, addend: 0x0, symName: __ZNKSt3__117__compressed_pairIP4EdgeNS_9allocatorIS1_EEE6secondB8ue170006Ev, symObjAddr: 0xF2C4, symBinAddr: 0x100030A3C, symSize: 0x24 }
  - { offsetInCU: 0x13A0B, offset: 0x49666, size: 0x8, addend: 0x0, symName: __ZNKSt3__122__compressed_pair_elemINS_9allocatorI4EdgeEELi1ELb1EE5__getB8ue170006Ev, symObjAddr: 0xF2E8, symBinAddr: 0x100030A60, symSize: 0x14 }
  - { offsetInCU: 0x13A2F, offset: 0x4968A, size: 0x8, addend: 0x0, symName: __ZNKSt3__16vectorI4EdgeNS_9allocatorIS1_EEE9__end_capB8ue170006Ev, symObjAddr: 0xF2FC, symBinAddr: 0x100030A74, symSize: 0x28 }
  - { offsetInCU: 0x13A53, offset: 0x496AE, size: 0x8, addend: 0x0, symName: __ZNKSt3__117__compressed_pairIP4EdgeNS_9allocatorIS1_EEE5firstB8ue170006Ev, symObjAddr: 0xF324, symBinAddr: 0x100030A9C, symSize: 0x24 }
  - { offsetInCU: 0x13A77, offset: 0x496D2, size: 0x8, addend: 0x0, symName: __ZNKSt3__122__compressed_pair_elemIP4EdgeLi0ELb0EE5__getB8ue170006Ev, symObjAddr: 0xF348, symBinAddr: 0x100030AC0, symSize: 0x14 }
  - { offsetInCU: 0x13A9B, offset: 0x496F6, size: 0x8, addend: 0x0, symName: __ZNSt3__114__split_bufferI4EdgeRNS_9allocatorIS1_EEEC2EmmS4_, symObjAddr: 0xF35C, symBinAddr: 0x100030AD4, symSize: 0xE0 }
  - { offsetInCU: 0x13B0D, offset: 0x49768, size: 0x8, addend: 0x0, symName: __ZNSt3__117__compressed_pairIP4EdgeRNS_9allocatorIS1_EEEC1B8ue170006IDnS5_EEOT_OT0_, symObjAddr: 0xF43C, symBinAddr: 0x100030BB4, symSize: 0x3C }
  - { offsetInCU: 0x13B64, offset: 0x497BF, size: 0x8, addend: 0x0, symName: __ZNSt3__114__split_bufferI4EdgeRNS_9allocatorIS1_EEE7__allocB8ue170006Ev, symObjAddr: 0xF4B8, symBinAddr: 0x100030C30, symSize: 0x28 }
  - { offsetInCU: 0x13B88, offset: 0x497E3, size: 0x8, addend: 0x0, symName: __ZNSt3__114__split_bufferI4EdgeRNS_9allocatorIS1_EEE9__end_capB8ue170006Ev, symObjAddr: 0xF4E0, symBinAddr: 0x100030C58, symSize: 0x28 }
  - { offsetInCU: 0x13BAC, offset: 0x49807, size: 0x8, addend: 0x0, symName: __ZNSt3__117__compressed_pairIP4EdgeRNS_9allocatorIS1_EEEC2B8ue170006IDnS5_EEOT_OT0_, symObjAddr: 0xF508, symBinAddr: 0x100030C80, symSize: 0x48 }
  - { offsetInCU: 0x13C03, offset: 0x4985E, size: 0x8, addend: 0x0, symName: __ZNSt3__122__compressed_pair_elemIRNS_9allocatorI4EdgeEELi1ELb0EEC2B8ue170006IS4_vEEOT_, symObjAddr: 0xF550, symBinAddr: 0x100030CC8, symSize: 0x20 }
  - { offsetInCU: 0x13C44, offset: 0x4989F, size: 0x8, addend: 0x0, symName: __ZNSt3__19allocatorI4EdgeE8allocateB8ue170006Em, symObjAddr: 0xF570, symBinAddr: 0x100030CE8, symSize: 0x5C }
  - { offsetInCU: 0x13C76, offset: 0x498D1, size: 0x8, addend: 0x0, symName: __ZNSt3__117__compressed_pairIP4EdgeRNS_9allocatorIS1_EEE6secondB8ue170006Ev, symObjAddr: 0xF5CC, symBinAddr: 0x100030D44, symSize: 0x28 }
  - { offsetInCU: 0x13C9A, offset: 0x498F5, size: 0x8, addend: 0x0, symName: __ZNSt3__122__compressed_pair_elemIRNS_9allocatorI4EdgeEELi1ELb0EE5__getB8ue170006Ev, symObjAddr: 0xF5F4, symBinAddr: 0x100030D6C, symSize: 0x18 }
  - { offsetInCU: 0x13CBE, offset: 0x49919, size: 0x8, addend: 0x0, symName: __ZNSt3__117__compressed_pairIP4EdgeRNS_9allocatorIS1_EEE5firstB8ue170006Ev, symObjAddr: 0xF60C, symBinAddr: 0x100030D84, symSize: 0x24 }
  - { offsetInCU: 0x13CE2, offset: 0x4993D, size: 0x8, addend: 0x0, symName: __ZNKSt3__16vectorI4EdgeNS_9allocatorIS1_EEE17__annotate_deleteB8ue170006Ev, symObjAddr: 0xF630, symBinAddr: 0x100030DA8, symSize: 0xD4 }
  - { offsetInCU: 0x13D06, offset: 0x49961, size: 0x8, addend: 0x0, symName: __ZNSt3__116reverse_iteratorIP4EdgeEC1B8ue170006ES2_, symObjAddr: 0xF77C, symBinAddr: 0x100030EF4, symSize: 0x34 }
  - { offsetInCU: 0x13D3D, offset: 0x49998, size: 0x8, addend: 0x0, symName: __ZNKSt3__116reverse_iteratorIP4EdgeE4baseB8ue170006Ev, symObjAddr: 0xF7B0, symBinAddr: 0x100030F28, symSize: 0x18 }
  - { offsetInCU: 0x13D61, offset: 0x499BC, size: 0x8, addend: 0x0, symName: __ZNKSt3__16vectorI4EdgeNS_9allocatorIS1_EEE14__annotate_newB8ue170006Em, symObjAddr: 0xF7C8, symBinAddr: 0x100030F40, symSize: 0xC8 }
  - { offsetInCU: 0x13D94, offset: 0x499EF, size: 0x8, addend: 0x0, symName: __ZNKSt3__16vectorI4EdgeNS_9allocatorIS1_EEE31__annotate_contiguous_containerB8ue170006EPKvS6_S6_S6_, symObjAddr: 0xF890, symBinAddr: 0x100031008, symSize: 0x20 }
  - { offsetInCU: 0x13DE4, offset: 0x49A3F, size: 0x8, addend: 0x0, symName: __ZNKSt3__16vectorI4EdgeNS_9allocatorIS1_EEE4dataB8ue170006Ev, symObjAddr: 0xF8B0, symBinAddr: 0x100031028, symSize: 0x28 }
  - { offsetInCU: 0x13E22, offset: 0x49A7D, size: 0x8, addend: 0x0, symName: __ZNKSt3__111__move_loopINS_17_ClassicAlgPolicyEEclB8ue170006INS_16reverse_iteratorIP4EdgeEES7_S7_EENS_4pairIT_T1_EES9_T0_SA_, symObjAddr: 0xFBC8, symBinAddr: 0x100031340, symSize: 0xA8 }
  - { offsetInCU: 0x13E8B, offset: 0x49AE6, size: 0x8, addend: 0x0, symName: __ZNSt3__18_IterOpsINS_17_ClassicAlgPolicyEE11__iter_moveB8ue170006IRNS_16reverse_iteratorIP4EdgeEEEENS_9enable_ifIXsr12is_referenceIDTdeclsr3stdE7declvalIRT_EEEEE5valueEDTclsr3stdE4movedeclsr3stdE7declvalISB_EEEEE4typeEOSA_, symObjAddr: 0xFE04, symBinAddr: 0x10003157C, symSize: 0x28 }
  - { offsetInCU: 0x13EB7, offset: 0x49B12, size: 0x8, addend: 0x0, symName: __ZNKSt3__116reverse_iteratorIP4EdgeEdeB8ue170006Ev, symObjAddr: 0xFE2C, symBinAddr: 0x1000315A4, symSize: 0x28 }
  - { offsetInCU: 0x13EE9, offset: 0x49B44, size: 0x8, addend: 0x0, symName: __ZNSt3__116reverse_iteratorIP4EdgeEppB8ue170006Ev, symObjAddr: 0xFE54, symBinAddr: 0x1000315CC, symSize: 0x20 }
  - { offsetInCU: 0x13F0D, offset: 0x49B68, size: 0x8, addend: 0x0, symName: __ZNSt3__18_IterOpsINS_17_ClassicAlgPolicyEE25__validate_iter_referenceB8ue170006IRNS_16reverse_iteratorIP4EdgeEEEEvv, symObjAddr: 0xFE74, symBinAddr: 0x1000315EC, symSize: 0x4 }
  - { offsetInCU: 0x13F2B, offset: 0x49B86, size: 0x8, addend: 0x0, symName: __ZNSt3__118__unwrap_iter_implINS_16reverse_iteratorIP4EdgeEELb0EE8__unwrapB8ue170006ES4_, symObjAddr: 0xFE78, symBinAddr: 0x1000315F0, symSize: 0x24 }
  - { offsetInCU: 0x13F54, offset: 0x49BAF, size: 0x8, addend: 0x0, symName: __ZNSt3__14pairINS_16reverse_iteratorIP4EdgeEES4_EC1B8ue170006IS4_S4_LPv0EEEOT_OT0_, symObjAddr: 0xFE9C, symBinAddr: 0x100031614, symSize: 0x3C }
  - { offsetInCU: 0x13FB1, offset: 0x49C0C, size: 0x8, addend: 0x0, symName: __ZNSt3__14pairINS_16reverse_iteratorIP4EdgeEES4_EC2B8ue170006IS4_S4_LPv0EEEOT_OT0_, symObjAddr: 0xFED8, symBinAddr: 0x100031650, symSize: 0x34 }
  - { offsetInCU: 0x1400E, offset: 0x49C69, size: 0x8, addend: 0x0, symName: __ZNSt3__118__unwrap_iter_implINS_16reverse_iteratorIP4EdgeEELb0EE8__rewrapB8ue170006ES4_S4_, symObjAddr: 0xFF0C, symBinAddr: 0x100031684, symSize: 0x2C }
  - { offsetInCU: 0x1403C, offset: 0x49C97, size: 0x8, addend: 0x0, symName: __ZNSt3__116reverse_iteratorIP4EdgeEC2B8ue170006ES2_, symObjAddr: 0xFF38, symBinAddr: 0x1000316B0, symSize: 0x28 }
  - { offsetInCU: 0x14073, offset: 0x49CCE, size: 0x8, addend: 0x0, symName: __ZNSt3__114__split_bufferI4EdgeRNS_9allocatorIS1_EEED2Ev, symObjAddr: 0xFF60, symBinAddr: 0x1000316D8, symSize: 0x8C }
  - { offsetInCU: 0x1409E, offset: 0x49CF9, size: 0x8, addend: 0x0, symName: __ZNSt3__114__split_bufferI4EdgeRNS_9allocatorIS1_EEE5clearB8ue170006Ev, symObjAddr: 0xFFEC, symBinAddr: 0x100031764, symSize: 0x28 }
  - { offsetInCU: 0x140C2, offset: 0x49D1D, size: 0x8, addend: 0x0, symName: __ZNSt3__116allocator_traitsINS_9allocatorI4EdgeEEE10deallocateB8ue170006ERS3_PS2_m, symObjAddr: 0x10014, symBinAddr: 0x10003178C, symSize: 0x34 }
  - { offsetInCU: 0x14104, offset: 0x49D5F, size: 0x8, addend: 0x0, symName: __ZNKSt3__114__split_bufferI4EdgeRNS_9allocatorIS1_EEE8capacityB8ue170006Ev, symObjAddr: 0x10048, symBinAddr: 0x1000317C0, symSize: 0x40 }
  - { offsetInCU: 0x14128, offset: 0x49D83, size: 0x8, addend: 0x0, symName: __ZNSt3__114__split_bufferI4EdgeRNS_9allocatorIS1_EEE17__destruct_at_endB8ue170006EPS1_, symObjAddr: 0x10088, symBinAddr: 0x100031800, symSize: 0x2C }
  - { offsetInCU: 0x1415A, offset: 0x49DB5, size: 0x8, addend: 0x0, symName: __ZNSt3__114__split_bufferI4EdgeRNS_9allocatorIS1_EEE17__destruct_at_endB8ue170006EPS1_NS_17integral_constantIbLb0EEE, symObjAddr: 0x100B4, symBinAddr: 0x10003182C, symSize: 0x80 }
  - { offsetInCU: 0x1419A, offset: 0x49DF5, size: 0x8, addend: 0x0, symName: __ZNSt3__116allocator_traitsINS_9allocatorI4EdgeEEE7destroyB8ue170006IS2_vEEvRS3_PT_, symObjAddr: 0x10134, symBinAddr: 0x1000318AC, symSize: 0x2C }
  - { offsetInCU: 0x141D7, offset: 0x49E32, size: 0x8, addend: 0x0, symName: __ZNSt3__19allocatorI4EdgeE7destroyB8ue170006EPS1_, symObjAddr: 0x10160, symBinAddr: 0x1000318D8, symSize: 0x14 }
  - { offsetInCU: 0x14209, offset: 0x49E64, size: 0x8, addend: 0x0, symName: __ZNSt3__19allocatorI4EdgeE10deallocateB8ue170006EPS1_m, symObjAddr: 0x10174, symBinAddr: 0x1000318EC, symSize: 0x44 }
  - { offsetInCU: 0x14249, offset: 0x49EA4, size: 0x8, addend: 0x0, symName: __ZNKSt3__114__split_bufferI4EdgeRNS_9allocatorIS1_EEE9__end_capB8ue170006Ev, symObjAddr: 0x101B8, symBinAddr: 0x100031930, symSize: 0x28 }
  - { offsetInCU: 0x1426D, offset: 0x49EC8, size: 0x8, addend: 0x0, symName: __ZNKSt3__117__compressed_pairIP4EdgeRNS_9allocatorIS1_EEE5firstB8ue170006Ev, symObjAddr: 0x101E0, symBinAddr: 0x100031958, symSize: 0x24 }
  - { offsetInCU: 0x1429B, offset: 0x49EF6, size: 0x8, addend: 0x0, symName: '__ZZN8MyCanvas8drawPathERK5GPathRK6GPaintENK3$_0clEP4EdgeS8_', symObjAddr: 0x10750, symBinAddr: 0x100031EC8, symSize: 0x3C }
  - { offsetInCU: 0x142E2, offset: 0x49F3D, size: 0x8, addend: 0x0, symName: __ZN4Edge11comparatorXEPS_S0_f, symObjAddr: 0x11790, symBinAddr: 0x100032F08, symSize: 0x54 }
  - { offsetInCU: 0x14321, offset: 0x49F7C, size: 0x8, addend: 0x0, symName: __ZNSt3__110unique_ptrI7GCanvasNS_14default_deleteIS1_EEEC2B8ue170006ILb1EvEEPS1_, symObjAddr: 0x125C4, symBinAddr: 0x100033D3C, symSize: 0x44 }
  - { offsetInCU: 0x14369, offset: 0x49FC4, size: 0x8, addend: 0x0, symName: __ZNSt3__117__compressed_pairIP7GCanvasNS_14default_deleteIS1_EEEC1B8ue170006IRS2_NS_16__value_init_tagEEEOT_OT0_, symObjAddr: 0x12608, symBinAddr: 0x100033D80, symSize: 0x3C }
  - { offsetInCU: 0x143C0, offset: 0x4A01B, size: 0x8, addend: 0x0, symName: __ZNSt3__117__compressed_pairIP7GCanvasNS_14default_deleteIS1_EEEC2B8ue170006IRS2_NS_16__value_init_tagEEEOT_OT0_, symObjAddr: 0x12644, symBinAddr: 0x100033DBC, symSize: 0x40 }
  - { offsetInCU: 0x14417, offset: 0x4A072, size: 0x8, addend: 0x0, symName: __ZNSt3__122__compressed_pair_elemIP7GCanvasLi0ELb0EEC2B8ue170006IRS2_vEEOT_, symObjAddr: 0x12684, symBinAddr: 0x100033DFC, symSize: 0x24 }
  - { offsetInCU: 0x14458, offset: 0x4A0B3, size: 0x8, addend: 0x0, symName: __ZNSt3__122__compressed_pair_elemINS_14default_deleteI7GCanvasEELi1ELb1EEC2B8ue170006ENS_16__value_init_tagE, symObjAddr: 0x126A8, symBinAddr: 0x100033E20, symSize: 0x14 }
  - { offsetInCU: 0x1448C, offset: 0x4A0E7, size: 0x8, addend: 0x0, symName: __ZNKSt3__117__compressed_pairIP7GShaderNS_14default_deleteIS1_EEE5firstB8ue170006Ev, symObjAddr: 0x126BC, symBinAddr: 0x100033E34, symSize: 0x24 }
  - { offsetInCU: 0x144B0, offset: 0x4A10B, size: 0x8, addend: 0x0, symName: __ZNKSt3__122__compressed_pair_elemIP7GShaderLi0ELb0EE5__getB8ue170006Ev, symObjAddr: 0x126E0, symBinAddr: 0x100033E58, symSize: 0x14 }
  - { offsetInCU: 0x26, offset: 0x4A576, size: 0x8, addend: 0x0, symName: __ZN15MyComposeShaderC2EP7GShaderS1_, symObjAddr: 0x0, symBinAddr: 0x100033E6C, symSize: 0x5C }
  - { offsetInCU: 0x2A43, offset: 0x4CF93, size: 0x8, addend: 0x0, symName: __ZN15MyComposeShaderC2EP7GShaderS1_, symObjAddr: 0x0, symBinAddr: 0x100033E6C, symSize: 0x5C }
  - { offsetInCU: 0x2A8A, offset: 0x4CFDA, size: 0x8, addend: 0x0, symName: __ZN15MyComposeShaderC1EP7GShaderS1_, symObjAddr: 0x80, symBinAddr: 0x100033EC8, symSize: 0x3C }
  - { offsetInCU: 0x2AD1, offset: 0x4D021, size: 0x8, addend: 0x0, symName: __ZN15MyComposeShader8isOpaqueEv, symObjAddr: 0xBC, symBinAddr: 0x100033F04, symSize: 0x68 }
  - { offsetInCU: 0x2AF7, offset: 0x4D047, size: 0x8, addend: 0x0, symName: __ZN15MyComposeShader10setContextERK7GMatrix, symObjAddr: 0x124, symBinAddr: 0x100033F6C, symSize: 0x74 }
  - { offsetInCU: 0x2B2B, offset: 0x4D07B, size: 0x8, addend: 0x0, symName: __ZN15MyComposeShader8shadeRowEiiiPj, symObjAddr: 0x198, symBinAddr: 0x100033FE0, symSize: 0x1A0 }
  - { offsetInCU: 0x2BE0, offset: 0x4D130, size: 0x8, addend: 0x0, symName: __ZN15MyComposeShader3mulEjj, symObjAddr: 0x338, symBinAddr: 0x100034180, symSize: 0xD4 }
  - { offsetInCU: 0x2C20, offset: 0x4D170, size: 0x8, addend: 0x0, symName: __ZN15MyComposeShaderD1Ev, symObjAddr: 0x40C, symBinAddr: 0x100034254, symSize: 0x2C }
  - { offsetInCU: 0x2C4B, offset: 0x4D19B, size: 0x8, addend: 0x0, symName: __ZN15MyComposeShaderD0Ev, symObjAddr: 0x438, symBinAddr: 0x100034280, symSize: 0x30 }
  - { offsetInCU: 0x2C76, offset: 0x4D1C6, size: 0x8, addend: 0x0, symName: __ZL15GPixel_PackARGBjjjj, symObjAddr: 0x488, symBinAddr: 0x1000342B0, symSize: 0x134 }
  - { offsetInCU: 0x2CCC, offset: 0x4D21C, size: 0x8, addend: 0x0, symName: __ZL7GDiv255j, symObjAddr: 0x5BC, symBinAddr: 0x1000343E4, symSize: 0x24 }
  - { offsetInCU: 0x2CF8, offset: 0x4D248, size: 0x8, addend: 0x0, symName: __ZL11GPixel_GetAj, symObjAddr: 0x5E0, symBinAddr: 0x100034408, symSize: 0x1C }
  - { offsetInCU: 0x2D24, offset: 0x4D274, size: 0x8, addend: 0x0, symName: __ZL11GPixel_GetRj, symObjAddr: 0x5FC, symBinAddr: 0x100034424, symSize: 0x1C }
  - { offsetInCU: 0x2D50, offset: 0x4D2A0, size: 0x8, addend: 0x0, symName: __ZL11GPixel_GetGj, symObjAddr: 0x618, symBinAddr: 0x100034440, symSize: 0x1C }
  - { offsetInCU: 0x2D7C, offset: 0x4D2CC, size: 0x8, addend: 0x0, symName: __ZL11GPixel_GetBj, symObjAddr: 0x634, symBinAddr: 0x10003445C, symSize: 0x1C }
  - { offsetInCU: 0x2DA8, offset: 0x4D2F8, size: 0x8, addend: 0x0, symName: __ZN15MyComposeShaderD2Ev, symObjAddr: 0x650, symBinAddr: 0x100034478, symSize: 0x2C }
  - { offsetInCU: 0x5DC2, offset: 0x5310A, size: 0x8, addend: 0x0, symName: __ZN7MyFinal19createSweepGradientE6GPointfPK6GColori, symObjAddr: 0x0, symBinAddr: 0x1000344A4, symSize: 0xB0 }
  - { offsetInCU: 0x5E20, offset: 0x53168, size: 0x8, addend: 0x0, symName: __ZN13MySweepShaderC1E6GPointfPK6GColori, symObjAddr: 0xB0, symBinAddr: 0x100034554, symSize: 0x54 }
  - { offsetInCU: 0x5E81, offset: 0x531C9, size: 0x8, addend: 0x0, symName: __ZNSt3__110unique_ptrI13MySweepShaderNS_14default_deleteIS1_EEEC1B8ue170006ILb1EvEEPS1_, symObjAddr: 0x104, symBinAddr: 0x1000345A8, symSize: 0x34 }
  - { offsetInCU: 0x5EC3, offset: 0x5320B, size: 0x8, addend: 0x0, symName: __ZNSt3__110unique_ptrI7GShaderNS_14default_deleteIS1_EEEC1B8ue170006I13MySweepShaderNS2_IS6_EEvvEEONS0_IT_T0_EE, symObjAddr: 0x138, symBinAddr: 0x1000345DC, symSize: 0x34 }
  - { offsetInCU: 0x5F0E, offset: 0x53256, size: 0x8, addend: 0x0, symName: __ZNSt3__110unique_ptrI13MySweepShaderNS_14default_deleteIS1_EEED1B8ue170006Ev, symObjAddr: 0x16C, symBinAddr: 0x100034610, symSize: 0x2C }
  - { offsetInCU: 0x5F37, offset: 0x5327F, size: 0x8, addend: 0x0, symName: __ZN7MyFinal23createColorMatrixShaderERK12GColorMatrixP7GShader, symObjAddr: 0x198, symBinAddr: 0x10003463C, symSize: 0x90 }
  - { offsetInCU: 0x5F79, offset: 0x532C1, size: 0x8, addend: 0x0, symName: __ZN15MyCMatrixShaderC1ERK12GColorMatrixP7GShader, symObjAddr: 0x228, symBinAddr: 0x1000346CC, symSize: 0x3C }
  - { offsetInCU: 0x5FBE, offset: 0x53306, size: 0x8, addend: 0x0, symName: __ZNSt3__110unique_ptrI15MyCMatrixShaderNS_14default_deleteIS1_EEEC1B8ue170006ILb1EvEEPS1_, symObjAddr: 0x264, symBinAddr: 0x100034708, symSize: 0x34 }
  - { offsetInCU: 0x6000, offset: 0x53348, size: 0x8, addend: 0x0, symName: __ZNSt3__110unique_ptrI7GShaderNS_14default_deleteIS1_EEEC1B8ue170006I15MyCMatrixShaderNS2_IS6_EEvvEEONS0_IT_T0_EE, symObjAddr: 0x298, symBinAddr: 0x10003473C, symSize: 0x34 }
  - { offsetInCU: 0x604B, offset: 0x53393, size: 0x8, addend: 0x0, symName: __ZNSt3__110unique_ptrI15MyCMatrixShaderNS_14default_deleteIS1_EEED1B8ue170006Ev, symObjAddr: 0x2CC, symBinAddr: 0x100034770, symSize: 0x2C }
  - { offsetInCU: 0x6074, offset: 0x533BC, size: 0x8, addend: 0x0, symName: __ZN7MyFinal13strokePolygonEPK6GPointifb, symObjAddr: 0x2F8, symBinAddr: 0x10003479C, symSize: 0x40C }
  - { offsetInCU: 0x6148, offset: 0x53490, size: 0x8, addend: 0x0, symName: __ZL9magnitudeRK6GPoint, symObjAddr: 0x788, symBinAddr: 0x100034BA8, symSize: 0x48 }
  - { offsetInCU: 0x6174, offset: 0x534BC, size: 0x8, addend: 0x0, symName: __Z12GCreateFinalv, symObjAddr: 0x928, symBinAddr: 0x100034BF0, symSize: 0x40 }
  - { offsetInCU: 0x6192, offset: 0x534DA, size: 0x8, addend: 0x0, symName: __ZN7MyFinalC1Ev, symObjAddr: 0x968, symBinAddr: 0x100034C30, symSize: 0x2C }
  - { offsetInCU: 0x61BD, offset: 0x53505, size: 0x8, addend: 0x0, symName: __ZNSt3__110unique_ptrI6GFinalNS_14default_deleteIS1_EEEC1B8ue170006ILb1EvEEPS1_, symObjAddr: 0x994, symBinAddr: 0x100034C5C, symSize: 0x34 }
  - { offsetInCU: 0x61FF, offset: 0x53547, size: 0x8, addend: 0x0, symName: __ZN7MyFinalD1Ev, symObjAddr: 0x9C8, symBinAddr: 0x100034C90, symSize: 0x2C }
  - { offsetInCU: 0x622A, offset: 0x53572, size: 0x8, addend: 0x0, symName: __ZN7MyFinalD0Ev, symObjAddr: 0x9F4, symBinAddr: 0x100034CBC, symSize: 0x30 }
  - { offsetInCU: 0x6255, offset: 0x5359D, size: 0x8, addend: 0x0, symName: __ZN6GFinal19createVoronoiShaderEPK6GPointPK6GColori, symObjAddr: 0xA24, symBinAddr: 0x100034CEC, symSize: 0x44 }
  - { offsetInCU: 0x62A3, offset: 0x535EB, size: 0x8, addend: 0x0, symName: __ZN6GFinal23createLinearPosGradientE6GPointS0_PK6GColorPKfi, symObjAddr: 0xA68, symBinAddr: 0x100034D30, symSize: 0x54 }
  - { offsetInCU: 0x630D, offset: 0x53655, size: 0x8, addend: 0x0, symName: __ZN6GFinal18drawQuadraticCoonsEP7GCanvasPK6GPointS4_iRK6GPaint, symObjAddr: 0xABC, symBinAddr: 0x100034D84, symSize: 0x24 }
  - { offsetInCU: 0x6371, offset: 0x536B9, size: 0x8, addend: 0x0, symName: __ZN13MySweepShaderC2E6GPointfPK6GColori, symObjAddr: 0xAE0, symBinAddr: 0x100034DA8, symSize: 0x144 }
  - { offsetInCU: 0x63EE, offset: 0x53736, size: 0x8, addend: 0x0, symName: __ZN13MySweepShaderD1Ev, symObjAddr: 0xC88, symBinAddr: 0x100034EEC, symSize: 0x2C }
  - { offsetInCU: 0x6419, offset: 0x53761, size: 0x8, addend: 0x0, symName: __ZN13MySweepShaderD0Ev, symObjAddr: 0xCB4, symBinAddr: 0x100034F18, symSize: 0x30 }
  - { offsetInCU: 0x6444, offset: 0x5378C, size: 0x8, addend: 0x0, symName: __ZN13MySweepShader8isOpaqueEv, symObjAddr: 0xCE4, symBinAddr: 0x100034F48, symSize: 0x18 }
  - { offsetInCU: 0x6468, offset: 0x537B0, size: 0x8, addend: 0x0, symName: __ZN13MySweepShader10setContextERK7GMatrix, symObjAddr: 0xCFC, symBinAddr: 0x100034F60, symSize: 0x90 }
  - { offsetInCU: 0x649A, offset: 0x537E2, size: 0x8, addend: 0x0, symName: __ZN13MySweepShader8shadeRowEiiiPj, symObjAddr: 0xD8C, symBinAddr: 0x100034FF0, symSize: 0x290 }
  - { offsetInCU: 0x6587, offset: 0x538CF, size: 0x8, addend: 0x0, symName: __ZN13MySweepShaderD2Ev, symObjAddr: 0x1160, symBinAddr: 0x100035280, symSize: 0x2C }
  - { offsetInCU: 0x65B1, offset: 0x538F9, size: 0x8, addend: 0x0, symName: __Z5atan2B8ue170006ff, symObjAddr: 0x1210, symBinAddr: 0x1000352AC, symSize: 0x2C }
  - { offsetInCU: 0x65EF, offset: 0x53937, size: 0x8, addend: 0x0, symName: __ZL11GFloorToIntf, symObjAddr: 0x123C, symBinAddr: 0x1000352D8, symSize: 0x18 }
  - { offsetInCU: 0x661B, offset: 0x53963, size: 0x8, addend: 0x0, symName: __ZL16premultiplyScaleRK6GColor, symObjAddr: 0x1340, symBinAddr: 0x1000352F0, symSize: 0x148 }
  - { offsetInCU: 0x6647, offset: 0x5398F, size: 0x8, addend: 0x0, symName: __ZL15GPixel_PackARGBjjjj, symObjAddr: 0x1568, symBinAddr: 0x100035438, symSize: 0x134 }
  - { offsetInCU: 0x669D, offset: 0x539E5, size: 0x8, addend: 0x0, symName: __ZL11GRoundToIntf, symObjAddr: 0x169C, symBinAddr: 0x10003556C, symSize: 0x20 }
  - { offsetInCU: 0x66C9, offset: 0x53A11, size: 0x8, addend: 0x0, symName: __ZN15MyCMatrixShaderC2ERK12GColorMatrixP7GShader, symObjAddr: 0x16BC, symBinAddr: 0x10003558C, symSize: 0x68 }
  - { offsetInCU: 0x670E, offset: 0x53A56, size: 0x8, addend: 0x0, symName: __ZN15MyCMatrixShaderD1Ev, symObjAddr: 0x1724, symBinAddr: 0x1000355F4, symSize: 0x2C }
  - { offsetInCU: 0x6739, offset: 0x53A81, size: 0x8, addend: 0x0, symName: __ZN15MyCMatrixShaderD0Ev, symObjAddr: 0x1750, symBinAddr: 0x100035620, symSize: 0x30 }
  - { offsetInCU: 0x6764, offset: 0x53AAC, size: 0x8, addend: 0x0, symName: __ZN15MyCMatrixShader8isOpaqueEv, symObjAddr: 0x1780, symBinAddr: 0x100035650, symSize: 0x18 }
  - { offsetInCU: 0x6788, offset: 0x53AD0, size: 0x8, addend: 0x0, symName: __ZN15MyCMatrixShader10setContextERK7GMatrix, symObjAddr: 0x1798, symBinAddr: 0x100035668, symSize: 0x3C }
  - { offsetInCU: 0x67BA, offset: 0x53B02, size: 0x8, addend: 0x0, symName: __ZN15MyCMatrixShader8shadeRowEiiiPj, symObjAddr: 0x17D4, symBinAddr: 0x1000356A4, symSize: 0x510 }
  - { offsetInCU: 0x685F, offset: 0x53BA7, size: 0x8, addend: 0x0, symName: __ZN15MyCMatrixShaderD2Ev, symObjAddr: 0x1CE4, symBinAddr: 0x100035BB4, symSize: 0x2C }
  - { offsetInCU: 0x688A, offset: 0x53BD2, size: 0x8, addend: 0x0, symName: __ZL11GPixel_GetAj, symObjAddr: 0x1D10, symBinAddr: 0x100035BE0, symSize: 0x1C }
  - { offsetInCU: 0x68B6, offset: 0x53BFE, size: 0x8, addend: 0x0, symName: __ZL11GPixel_GetRj, symObjAddr: 0x1D2C, symBinAddr: 0x100035BFC, symSize: 0x1C }
  - { offsetInCU: 0x68E2, offset: 0x53C2A, size: 0x8, addend: 0x0, symName: __ZL11GPixel_GetGj, symObjAddr: 0x1D48, symBinAddr: 0x100035C18, symSize: 0x1C }
  - { offsetInCU: 0x690E, offset: 0x53C56, size: 0x8, addend: 0x0, symName: __ZL11GPixel_GetBj, symObjAddr: 0x1D64, symBinAddr: 0x100035C34, symSize: 0x1C }
  - { offsetInCU: 0x693A, offset: 0x53C82, size: 0x8, addend: 0x0, symName: __ZNK12GColorMatrixixEj, symObjAddr: 0x1D80, symBinAddr: 0x100035C50, symSize: 0x74 }
  - { offsetInCU: 0x696C, offset: 0x53CB4, size: 0x8, addend: 0x0, symName: __ZNKSt3__15arrayIfLm20EEixB8ue170006Em, symObjAddr: 0x1E4C, symBinAddr: 0x100035CC4, symSize: 0x20 }
  - { offsetInCU: 0x69D6, offset: 0x53D1E, size: 0x8, addend: 0x0, symName: __ZN7MyFinalC2Ev, symObjAddr: 0x50C4, symBinAddr: 0x100035CE4, symSize: 0x44 }
  - { offsetInCU: 0x6A01, offset: 0x53D49, size: 0x8, addend: 0x0, symName: __ZN6GFinalC2Ev, symObjAddr: 0x5108, symBinAddr: 0x100035D28, symSize: 0x24 }
  - { offsetInCU: 0x6A2C, offset: 0x53D74, size: 0x8, addend: 0x0, symName: __ZN6GFinalD1Ev, symObjAddr: 0x512C, symBinAddr: 0x100035D4C, symSize: 0x2C }
  - { offsetInCU: 0x6A55, offset: 0x53D9D, size: 0x8, addend: 0x0, symName: __ZN6GFinalD0Ev, symObjAddr: 0x5158, symBinAddr: 0x100035D78, symSize: 0x30 }
  - { offsetInCU: 0x6A7E, offset: 0x53DC6, size: 0x8, addend: 0x0, symName: __ZN6GFinal19createSweepGradientE6GPointfPK6GColori, symObjAddr: 0x5188, symBinAddr: 0x100035DA8, symSize: 0x4C }
  - { offsetInCU: 0x6ADA, offset: 0x53E22, size: 0x8, addend: 0x0, symName: __ZN6GFinal23createColorMatrixShaderERK12GColorMatrixP7GShader, symObjAddr: 0x51D4, symBinAddr: 0x100035DF4, symSize: 0x40 }
  - { offsetInCU: 0x6B17, offset: 0x53E5F, size: 0x8, addend: 0x0, symName: __ZN6GFinal13strokePolygonEPK6GPointifb, symObjAddr: 0x5214, symBinAddr: 0x100035E34, symSize: 0x48 }
  - { offsetInCU: 0x6B70, offset: 0x53EB8, size: 0x8, addend: 0x0, symName: __ZN6GFinalD2Ev, symObjAddr: 0x525C, symBinAddr: 0x100035E7C, symSize: 0x14 }
  - { offsetInCU: 0x6B99, offset: 0x53EE1, size: 0x8, addend: 0x0, symName: __ZNSt3__110unique_ptrI7GShaderNS_14default_deleteIS1_EEEC1B8ue170006ILb1EvEEDn, symObjAddr: 0x5270, symBinAddr: 0x100035E90, symSize: 0x34 }
  - { offsetInCU: 0x6BD8, offset: 0x53F20, size: 0x8, addend: 0x0, symName: __ZNSt3__110unique_ptrI7GShaderNS_14default_deleteIS1_EEEC2B8ue170006ILb1EvEEDn, symObjAddr: 0x52A4, symBinAddr: 0x100035EC4, symSize: 0x40 }
  - { offsetInCU: 0x6C1D, offset: 0x53F65, size: 0x8, addend: 0x0, symName: __ZNSt3__117__compressed_pairIP7GShaderNS_14default_deleteIS1_EEEC1B8ue170006INS_16__value_init_tagES7_EEOT_OT0_, symObjAddr: 0x52E4, symBinAddr: 0x100035F04, symSize: 0x3C }
  - { offsetInCU: 0x6C74, offset: 0x53FBC, size: 0x8, addend: 0x0, symName: __ZNSt3__117__compressed_pairIP7GShaderNS_14default_deleteIS1_EEEC2B8ue170006INS_16__value_init_tagES7_EEOT_OT0_, symObjAddr: 0x5320, symBinAddr: 0x100035F40, symSize: 0x3C }
  - { offsetInCU: 0x6CCB, offset: 0x54013, size: 0x8, addend: 0x0, symName: __ZNSt3__122__compressed_pair_elemIP7GShaderLi0ELb0EEC2B8ue170006ENS_16__value_init_tagE, symObjAddr: 0x535C, symBinAddr: 0x100035F7C, symSize: 0x18 }
  - { offsetInCU: 0x6CFF, offset: 0x54047, size: 0x8, addend: 0x0, symName: __ZN7MyFinalD2Ev, symObjAddr: 0x5388, symBinAddr: 0x100035F94, symSize: 0x2C }
  - { offsetInCU: 0x6D2A, offset: 0x54072, size: 0x8, addend: 0x0, symName: __ZNSt3__110unique_ptrI13MySweepShaderNS_14default_deleteIS1_EEEC2B8ue170006ILb1EvEEPS1_, symObjAddr: 0x53B4, symBinAddr: 0x100035FC0, symSize: 0x44 }
  - { offsetInCU: 0x6D6C, offset: 0x540B4, size: 0x8, addend: 0x0, symName: __ZNSt3__117__compressed_pairIP13MySweepShaderNS_14default_deleteIS1_EEEC1B8ue170006IRS2_NS_16__value_init_tagEEEOT_OT0_, symObjAddr: 0x53F8, symBinAddr: 0x100036004, symSize: 0x3C }
  - { offsetInCU: 0x6DC3, offset: 0x5410B, size: 0x8, addend: 0x0, symName: __ZNSt3__117__compressed_pairIP13MySweepShaderNS_14default_deleteIS1_EEEC2B8ue170006IRS2_NS_16__value_init_tagEEEOT_OT0_, symObjAddr: 0x5434, symBinAddr: 0x100036040, symSize: 0x40 }
  - { offsetInCU: 0x6E1A, offset: 0x54162, size: 0x8, addend: 0x0, symName: __ZNSt3__122__compressed_pair_elemIP13MySweepShaderLi0ELb0EEC2B8ue170006IRS2_vEEOT_, symObjAddr: 0x5474, symBinAddr: 0x100036080, symSize: 0x24 }
  - { offsetInCU: 0x6E5B, offset: 0x541A3, size: 0x8, addend: 0x0, symName: __ZNSt3__122__compressed_pair_elemINS_14default_deleteI13MySweepShaderEELi1ELb1EEC2B8ue170006ENS_16__value_init_tagE, symObjAddr: 0x5498, symBinAddr: 0x1000360A4, symSize: 0x14 }
  - { offsetInCU: 0x6E8F, offset: 0x541D7, size: 0x8, addend: 0x0, symName: __ZNSt3__110unique_ptrI13MySweepShaderNS_14default_deleteIS1_EEED2B8ue170006Ev, symObjAddr: 0x54AC, symBinAddr: 0x1000360B8, symSize: 0x30 }
  - { offsetInCU: 0x6EB8, offset: 0x54200, size: 0x8, addend: 0x0, symName: __ZNSt3__110unique_ptrI13MySweepShaderNS_14default_deleteIS1_EEE5resetB8ue170006EPS1_, symObjAddr: 0x54DC, symBinAddr: 0x1000360E8, symSize: 0x78 }
  - { offsetInCU: 0x6EFA, offset: 0x54242, size: 0x8, addend: 0x0, symName: __ZNSt3__117__compressed_pairIP13MySweepShaderNS_14default_deleteIS1_EEE5firstB8ue170006Ev, symObjAddr: 0x5554, symBinAddr: 0x100036160, symSize: 0x24 }
  - { offsetInCU: 0x6F1E, offset: 0x54266, size: 0x8, addend: 0x0, symName: __ZNSt3__117__compressed_pairIP13MySweepShaderNS_14default_deleteIS1_EEE6secondB8ue170006Ev, symObjAddr: 0x5578, symBinAddr: 0x100036184, symSize: 0x24 }
  - { offsetInCU: 0x6F42, offset: 0x5428A, size: 0x8, addend: 0x0, symName: __ZNKSt3__114default_deleteI13MySweepShaderEclB8ue170006EPS1_, symObjAddr: 0x559C, symBinAddr: 0x1000361A8, symSize: 0x4C }
  - { offsetInCU: 0x6F74, offset: 0x542BC, size: 0x8, addend: 0x0, symName: __ZNSt3__122__compressed_pair_elemIP13MySweepShaderLi0ELb0EE5__getB8ue170006Ev, symObjAddr: 0x55E8, symBinAddr: 0x1000361F4, symSize: 0x14 }
  - { offsetInCU: 0x6F98, offset: 0x542E0, size: 0x8, addend: 0x0, symName: __ZNSt3__122__compressed_pair_elemINS_14default_deleteI13MySweepShaderEELi1ELb1EE5__getB8ue170006Ev, symObjAddr: 0x55FC, symBinAddr: 0x100036208, symSize: 0x14 }
  - { offsetInCU: 0x6FBC, offset: 0x54304, size: 0x8, addend: 0x0, symName: __ZNSt3__110unique_ptrI7GShaderNS_14default_deleteIS1_EEEC2B8ue170006I13MySweepShaderNS2_IS6_EEvvEEONS0_IT_T0_EE, symObjAddr: 0x5610, symBinAddr: 0x10003621C, symSize: 0x60 }
  - { offsetInCU: 0x7007, offset: 0x5434F, size: 0x8, addend: 0x0, symName: __ZNSt3__110unique_ptrI13MySweepShaderNS_14default_deleteIS1_EEE7releaseB8ue170006Ev, symObjAddr: 0x5670, symBinAddr: 0x10003627C, symSize: 0x44 }
  - { offsetInCU: 0x703A, offset: 0x54382, size: 0x8, addend: 0x0, symName: __ZNSt3__110unique_ptrI13MySweepShaderNS_14default_deleteIS1_EEE11get_deleterB8ue170006Ev, symObjAddr: 0x56B4, symBinAddr: 0x1000362C0, symSize: 0x24 }
  - { offsetInCU: 0x706A, offset: 0x543B2, size: 0x8, addend: 0x0, symName: __ZNSt3__117__compressed_pairIP7GShaderNS_14default_deleteIS1_EEEC1B8ue170006IP13MySweepShaderNS3_IS7_EEEEOT_OT0_, symObjAddr: 0x56D8, symBinAddr: 0x1000362E4, symSize: 0x3C }
  - { offsetInCU: 0x70C1, offset: 0x54409, size: 0x8, addend: 0x0, symName: __ZNSt3__117__compressed_pairIP7GShaderNS_14default_deleteIS1_EEEC2B8ue170006IP13MySweepShaderNS3_IS7_EEEEOT_OT0_, symObjAddr: 0x5714, symBinAddr: 0x100036320, symSize: 0x44 }
  - { offsetInCU: 0x7118, offset: 0x54460, size: 0x8, addend: 0x0, symName: __ZNSt3__122__compressed_pair_elemIP7GShaderLi0ELb0EEC2B8ue170006IP13MySweepShadervEEOT_, symObjAddr: 0x5758, symBinAddr: 0x100036364, symSize: 0x24 }
  - { offsetInCU: 0x7159, offset: 0x544A1, size: 0x8, addend: 0x0, symName: __ZNSt3__122__compressed_pair_elemINS_14default_deleteI7GShaderEELi1ELb1EEC2B8ue170006INS1_I13MySweepShaderEEvEEOT_, symObjAddr: 0x577C, symBinAddr: 0x100036388, symSize: 0x38 }
  - { offsetInCU: 0x719F, offset: 0x544E7, size: 0x8, addend: 0x0, symName: __ZNSt3__114default_deleteI7GShaderEC2B8ue170006I13MySweepShaderEERKNS0_IT_EEPNS_9enable_ifIXsr14is_convertibleIPS5_PS1_EE5valueEvE4typeE, symObjAddr: 0x57B4, symBinAddr: 0x1000363C0, symSize: 0x1C }
  - { offsetInCU: 0x71E7, offset: 0x5452F, size: 0x8, addend: 0x0, symName: __ZNSt3__110unique_ptrI15MyCMatrixShaderNS_14default_deleteIS1_EEEC2B8ue170006ILb1EvEEPS1_, symObjAddr: 0x57D0, symBinAddr: 0x1000363DC, symSize: 0x44 }
  - { offsetInCU: 0x7229, offset: 0x54571, size: 0x8, addend: 0x0, symName: __ZNSt3__117__compressed_pairIP15MyCMatrixShaderNS_14default_deleteIS1_EEEC1B8ue170006IRS2_NS_16__value_init_tagEEEOT_OT0_, symObjAddr: 0x5814, symBinAddr: 0x100036420, symSize: 0x3C }
  - { offsetInCU: 0x7280, offset: 0x545C8, size: 0x8, addend: 0x0, symName: __ZNSt3__117__compressed_pairIP15MyCMatrixShaderNS_14default_deleteIS1_EEEC2B8ue170006IRS2_NS_16__value_init_tagEEEOT_OT0_, symObjAddr: 0x5850, symBinAddr: 0x10003645C, symSize: 0x40 }
  - { offsetInCU: 0x72D7, offset: 0x5461F, size: 0x8, addend: 0x0, symName: __ZNSt3__122__compressed_pair_elemIP15MyCMatrixShaderLi0ELb0EEC2B8ue170006IRS2_vEEOT_, symObjAddr: 0x5890, symBinAddr: 0x10003649C, symSize: 0x24 }
  - { offsetInCU: 0x7318, offset: 0x54660, size: 0x8, addend: 0x0, symName: __ZNSt3__122__compressed_pair_elemINS_14default_deleteI15MyCMatrixShaderEELi1ELb1EEC2B8ue170006ENS_16__value_init_tagE, symObjAddr: 0x58B4, symBinAddr: 0x1000364C0, symSize: 0x14 }
  - { offsetInCU: 0x734C, offset: 0x54694, size: 0x8, addend: 0x0, symName: __ZNSt3__110unique_ptrI15MyCMatrixShaderNS_14default_deleteIS1_EEED2B8ue170006Ev, symObjAddr: 0x58C8, symBinAddr: 0x1000364D4, symSize: 0x30 }
  - { offsetInCU: 0x7375, offset: 0x546BD, size: 0x8, addend: 0x0, symName: __ZNSt3__110unique_ptrI15MyCMatrixShaderNS_14default_deleteIS1_EEE5resetB8ue170006EPS1_, symObjAddr: 0x58F8, symBinAddr: 0x100036504, symSize: 0x78 }
  - { offsetInCU: 0x73B7, offset: 0x546FF, size: 0x8, addend: 0x0, symName: __ZNSt3__117__compressed_pairIP15MyCMatrixShaderNS_14default_deleteIS1_EEE5firstB8ue170006Ev, symObjAddr: 0x5970, symBinAddr: 0x10003657C, symSize: 0x24 }
  - { offsetInCU: 0x73DB, offset: 0x54723, size: 0x8, addend: 0x0, symName: __ZNSt3__117__compressed_pairIP15MyCMatrixShaderNS_14default_deleteIS1_EEE6secondB8ue170006Ev, symObjAddr: 0x5994, symBinAddr: 0x1000365A0, symSize: 0x24 }
  - { offsetInCU: 0x73FF, offset: 0x54747, size: 0x8, addend: 0x0, symName: __ZNKSt3__114default_deleteI15MyCMatrixShaderEclB8ue170006EPS1_, symObjAddr: 0x59B8, symBinAddr: 0x1000365C4, symSize: 0x4C }
  - { offsetInCU: 0x7431, offset: 0x54779, size: 0x8, addend: 0x0, symName: __ZNSt3__122__compressed_pair_elemIP15MyCMatrixShaderLi0ELb0EE5__getB8ue170006Ev, symObjAddr: 0x5A04, symBinAddr: 0x100036610, symSize: 0x14 }
  - { offsetInCU: 0x7455, offset: 0x5479D, size: 0x8, addend: 0x0, symName: __ZNSt3__122__compressed_pair_elemINS_14default_deleteI15MyCMatrixShaderEELi1ELb1EE5__getB8ue170006Ev, symObjAddr: 0x5A18, symBinAddr: 0x100036624, symSize: 0x14 }
  - { offsetInCU: 0x7479, offset: 0x547C1, size: 0x8, addend: 0x0, symName: __ZNSt3__110unique_ptrI7GShaderNS_14default_deleteIS1_EEEC2B8ue170006I15MyCMatrixShaderNS2_IS6_EEvvEEONS0_IT_T0_EE, symObjAddr: 0x5A2C, symBinAddr: 0x100036638, symSize: 0x60 }
  - { offsetInCU: 0x74C4, offset: 0x5480C, size: 0x8, addend: 0x0, symName: __ZNSt3__110unique_ptrI15MyCMatrixShaderNS_14default_deleteIS1_EEE7releaseB8ue170006Ev, symObjAddr: 0x5A8C, symBinAddr: 0x100036698, symSize: 0x44 }
  - { offsetInCU: 0x74F7, offset: 0x5483F, size: 0x8, addend: 0x0, symName: __ZNSt3__110unique_ptrI15MyCMatrixShaderNS_14default_deleteIS1_EEE11get_deleterB8ue170006Ev, symObjAddr: 0x5AD0, symBinAddr: 0x1000366DC, symSize: 0x24 }
  - { offsetInCU: 0x7527, offset: 0x5486F, size: 0x8, addend: 0x0, symName: __ZNSt3__117__compressed_pairIP7GShaderNS_14default_deleteIS1_EEEC1B8ue170006IP15MyCMatrixShaderNS3_IS7_EEEEOT_OT0_, symObjAddr: 0x5AF4, symBinAddr: 0x100036700, symSize: 0x3C }
  - { offsetInCU: 0x757E, offset: 0x548C6, size: 0x8, addend: 0x0, symName: __ZNSt3__117__compressed_pairIP7GShaderNS_14default_deleteIS1_EEEC2B8ue170006IP15MyCMatrixShaderNS3_IS7_EEEEOT_OT0_, symObjAddr: 0x5B30, symBinAddr: 0x10003673C, symSize: 0x44 }
  - { offsetInCU: 0x75D5, offset: 0x5491D, size: 0x8, addend: 0x0, symName: __ZNSt3__122__compressed_pair_elemIP7GShaderLi0ELb0EEC2B8ue170006IP15MyCMatrixShadervEEOT_, symObjAddr: 0x5B74, symBinAddr: 0x100036780, symSize: 0x24 }
  - { offsetInCU: 0x7616, offset: 0x5495E, size: 0x8, addend: 0x0, symName: __ZNSt3__122__compressed_pair_elemINS_14default_deleteI7GShaderEELi1ELb1EEC2B8ue170006INS1_I15MyCMatrixShaderEEvEEOT_, symObjAddr: 0x5B98, symBinAddr: 0x1000367A4, symSize: 0x38 }
  - { offsetInCU: 0x7657, offset: 0x5499F, size: 0x8, addend: 0x0, symName: __ZNSt3__114default_deleteI7GShaderEC2B8ue170006I15MyCMatrixShaderEERKNS0_IT_EEPNS_9enable_ifIXsr14is_convertibleIPS5_PS1_EE5valueEvE4typeE, symObjAddr: 0x5BD0, symBinAddr: 0x1000367DC, symSize: 0x1C }
  - { offsetInCU: 0x769F, offset: 0x549E7, size: 0x8, addend: 0x0, symName: __ZNSt3__110unique_ptrI6GFinalNS_14default_deleteIS1_EEEC2B8ue170006ILb1EvEEPS1_, symObjAddr: 0x5BEC, symBinAddr: 0x1000367F8, symSize: 0x44 }
  - { offsetInCU: 0x76E1, offset: 0x54A29, size: 0x8, addend: 0x0, symName: __ZNSt3__117__compressed_pairIP6GFinalNS_14default_deleteIS1_EEEC1B8ue170006IRS2_NS_16__value_init_tagEEEOT_OT0_, symObjAddr: 0x5C30, symBinAddr: 0x10003683C, symSize: 0x3C }
  - { offsetInCU: 0x7738, offset: 0x54A80, size: 0x8, addend: 0x0, symName: __ZNSt3__117__compressed_pairIP6GFinalNS_14default_deleteIS1_EEEC2B8ue170006IRS2_NS_16__value_init_tagEEEOT_OT0_, symObjAddr: 0x5C6C, symBinAddr: 0x100036878, symSize: 0x40 }
  - { offsetInCU: 0x778F, offset: 0x54AD7, size: 0x8, addend: 0x0, symName: __ZNSt3__122__compressed_pair_elemIP6GFinalLi0ELb0EEC2B8ue170006IRS2_vEEOT_, symObjAddr: 0x5CAC, symBinAddr: 0x1000368B8, symSize: 0x24 }
  - { offsetInCU: 0x77D0, offset: 0x54B18, size: 0x8, addend: 0x0, symName: __ZNSt3__122__compressed_pair_elemINS_14default_deleteI6GFinalEELi1ELb1EEC2B8ue170006ENS_16__value_init_tagE, symObjAddr: 0x5CD0, symBinAddr: 0x1000368DC, symSize: 0x14 }
  - { offsetInCU: 0x2B32, offset: 0x576BE, size: 0x8, addend: 0x0, symName: __ZN10MyGradientC2E6GPointS0_PK6GColori9GTileMode, symObjAddr: 0x0, symBinAddr: 0x1000368F0, symSize: 0x130 }
  - { offsetInCU: 0x2BA3, offset: 0x5772F, size: 0x8, addend: 0x0, symName: __ZN10MyGradient5setLME6GPointS0_, symObjAddr: 0x154, symBinAddr: 0x100036A20, symSize: 0x78 }
  - { offsetInCU: 0x2C01, offset: 0x5778D, size: 0x8, addend: 0x0, symName: __ZN10MyGradient18setOpaqueAndColorsEPK6GColor, symObjAddr: 0x1F8, symBinAddr: 0x100036A98, symSize: 0x1C8 }
  - { offsetInCU: 0x2C5F, offset: 0x577EB, size: 0x8, addend: 0x0, symName: __ZN10MyGradient5clampEf, symObjAddr: 0x3C0, symBinAddr: 0x100036C60, symSize: 0x44 }
  - { offsetInCU: 0x2C82, offset: 0x5780E, size: 0x8, addend: 0x0, symName: __ZN10MyGradient6repeatEf, symObjAddr: 0x404, symBinAddr: 0x100036CA4, symSize: 0x38 }
  - { offsetInCU: 0x2CA5, offset: 0x57831, size: 0x8, addend: 0x0, symName: __ZN10MyGradient6mirrorEf, symObjAddr: 0x43C, symBinAddr: 0x100036CDC, symSize: 0x7C }
  - { offsetInCU: 0x2CC8, offset: 0x57854, size: 0x8, addend: 0x0, symName: __ZN10MyGradientC1E6GPointS0_PK6GColori9GTileMode, symObjAddr: 0x4CC, symBinAddr: 0x100036D58, symSize: 0x64 }
  - { offsetInCU: 0x2D39, offset: 0x578C5, size: 0x8, addend: 0x0, symName: __ZNK6GColormiERKS_, symObjAddr: 0x58C, symBinAddr: 0x100036DBC, symSize: 0x78 }
  - { offsetInCU: 0x2D6B, offset: 0x578F7, size: 0x8, addend: 0x0, symName: __ZN10MyGradient8isOpaqueEv, symObjAddr: 0x604, symBinAddr: 0x100036E34, symSize: 0x1C }
  - { offsetInCU: 0x2D92, offset: 0x5791E, size: 0x8, addend: 0x0, symName: __ZN10MyGradient10setContextERK7GMatrix, symObjAddr: 0x620, symBinAddr: 0x100036E50, symSize: 0x70 }
  - { offsetInCU: 0x2DC6, offset: 0x57952, size: 0x8, addend: 0x0, symName: __ZN10MyGradient8shadeRowEiiiPj, symObjAddr: 0x6D8, symBinAddr: 0x100036EC0, symSize: 0x348 }
  - { offsetInCU: 0x2F19, offset: 0x57AA5, size: 0x8, addend: 0x0, symName: __ZL16premultiplyScaleRK6GColor, symObjAddr: 0xA20, symBinAddr: 0x100037208, symSize: 0x148 }
  - { offsetInCU: 0x2F45, offset: 0x57AD1, size: 0x8, addend: 0x0, symName: __ZL11GFloorToIntf, symObjAddr: 0xD28, symBinAddr: 0x100037350, symSize: 0x18 }
  - { offsetInCU: 0x2F71, offset: 0x57AFD, size: 0x8, addend: 0x0, symName: __Z21GCreateLinearGradient6GPointS_PK6GColori9GTileMode, symObjAddr: 0xD40, symBinAddr: 0x100037368, symSize: 0xAC }
  - { offsetInCU: 0x2FD5, offset: 0x57B61, size: 0x8, addend: 0x0, symName: __ZN10MyGradientD1Ev, symObjAddr: 0xE20, symBinAddr: 0x100037414, symSize: 0x2C }
  - { offsetInCU: 0x3000, offset: 0x57B8C, size: 0x8, addend: 0x0, symName: __ZN10MyGradientD0Ev, symObjAddr: 0xE4C, symBinAddr: 0x100037440, symSize: 0x30 }
  - { offsetInCU: 0x302B, offset: 0x57BB7, size: 0x8, addend: 0x0, symName: __ZL15GPixel_PackARGBjjjj, symObjAddr: 0x1150, symBinAddr: 0x100037470, symSize: 0x134 }
  - { offsetInCU: 0x3081, offset: 0x57C0D, size: 0x8, addend: 0x0, symName: __ZL11GRoundToIntf, symObjAddr: 0x1284, symBinAddr: 0x1000375A4, symSize: 0x20 }
  - { offsetInCU: 0x30AD, offset: 0x57C39, size: 0x8, addend: 0x0, symName: __ZN10MyGradientD2Ev, symObjAddr: 0x1364, symBinAddr: 0x1000375C4, symSize: 0x2C }
  - { offsetInCU: 0x26, offset: 0x57C94, size: 0x8, addend: 0x0, symName: __ZN11MyTriShaderC2EPK6GPointPK6GColor, symObjAddr: 0x0, symBinAddr: 0x1000375F0, symSize: 0xEC }
  - { offsetInCU: 0x2A6A, offset: 0x5A6D8, size: 0x8, addend: 0x0, symName: __ZN11MyTriShaderC2EPK6GPointPK6GColor, symObjAddr: 0x0, symBinAddr: 0x1000375F0, symSize: 0xEC }
  - { offsetInCU: 0x2AB1, offset: 0x5A71F, size: 0x8, addend: 0x0, symName: __ZL12computeBasisRK6GPointS1_S1_, symObjAddr: 0x110, symBinAddr: 0x1000376DC, symSize: 0x9C }
  - { offsetInCU: 0x2AF9, offset: 0x5A767, size: 0x8, addend: 0x0, symName: __ZN11MyTriShader9getOpaqueEv, symObjAddr: 0x1D8, symBinAddr: 0x100037778, symSize: 0x8C }
  - { offsetInCU: 0x2B20, offset: 0x5A78E, size: 0x8, addend: 0x0, symName: __ZN11MyTriShaderC1EPK6GPointPK6GColor, symObjAddr: 0x278, symBinAddr: 0x100037804, symSize: 0x3C }
  - { offsetInCU: 0x2B67, offset: 0x5A7D5, size: 0x8, addend: 0x0, symName: __ZN11MyTriShader8isOpaqueEv, symObjAddr: 0x2B4, symBinAddr: 0x100037840, symSize: 0x1C }
  - { offsetInCU: 0x2B8E, offset: 0x5A7FC, size: 0x8, addend: 0x0, symName: __ZN11MyTriShader10setContextERK7GMatrix, symObjAddr: 0x2D0, symBinAddr: 0x10003785C, symSize: 0x70 }
  - { offsetInCU: 0x2BC2, offset: 0x5A830, size: 0x8, addend: 0x0, symName: __ZN11MyTriShader8shadeRowEiiiPj, symObjAddr: 0x388, symBinAddr: 0x1000378CC, symSize: 0x244 }
  - { offsetInCU: 0x2C86, offset: 0x5A8F4, size: 0x8, addend: 0x0, symName: __ZL16premultiplyScaleRK6GColor, symObjAddr: 0x804, symBinAddr: 0x100037B10, symSize: 0x148 }
  - { offsetInCU: 0x2CB2, offset: 0x5A920, size: 0x8, addend: 0x0, symName: __ZN6GColorpLERKS_, symObjAddr: 0x94C, symBinAddr: 0x100037C58, symSize: 0x4C }
  - { offsetInCU: 0x2CE4, offset: 0x5A952, size: 0x8, addend: 0x0, symName: __ZN11MyTriShaderD1Ev, symObjAddr: 0x998, symBinAddr: 0x100037CA4, symSize: 0x2C }
  - { offsetInCU: 0x2D0F, offset: 0x5A97D, size: 0x8, addend: 0x0, symName: __ZN11MyTriShaderD0Ev, symObjAddr: 0x9C4, symBinAddr: 0x100037CD0, symSize: 0x30 }
  - { offsetInCU: 0x2D3A, offset: 0x5A9A8, size: 0x8, addend: 0x0, symName: __ZL15GPixel_PackARGBjjjj, symObjAddr: 0xCF4, symBinAddr: 0x100037D00, symSize: 0x134 }
  - { offsetInCU: 0x2D90, offset: 0x5A9FE, size: 0x8, addend: 0x0, symName: __ZL11GRoundToIntf, symObjAddr: 0xE28, symBinAddr: 0x100037E34, symSize: 0x20 }
  - { offsetInCU: 0x2DBC, offset: 0x5AA2A, size: 0x8, addend: 0x0, symName: __ZN11MyTriShaderD2Ev, symObjAddr: 0xE48, symBinAddr: 0x100037E54, symSize: 0x2C }
  - { offsetInCU: 0x26, offset: 0x5AA8F, size: 0x8, addend: 0x0, symName: _main, symObjAddr: 0x0, symBinAddr: 0x100037E80, symSize: 0x30 }
  - { offsetInCU: 0x33, offset: 0x5AA9C, size: 0x8, addend: 0x0, symName: _main, symObjAddr: 0x0, symBinAddr: 0x100037E80, symSize: 0x30 }
  - { offsetInCU: 0x52, offset: 0x5AB42, size: 0x8, addend: 0x0, symName: __ZL9gPACounts, symObjAddr: 0x18BA4, symBinAddr: 0x100044488, symSize: 0x0 }
  - { offsetInCU: 0x7F, offset: 0x5AB6F, size: 0x8, addend: 0x0, symName: __ZL10gDrawCount, symObjAddr: 0x18BCC, symBinAddr: 0x1000444B0, symSize: 0x0 }
  - { offsetInCU: 0x471E, offset: 0x5F20E, size: 0x8, addend: 0x0, symName: __Z10main_imageiPPKc, symObjAddr: 0x0, symBinAddr: 0x100037EB0, symSize: 0xCDC }
  - { offsetInCU: 0x4A5D, offset: 0x5F54D, size: 0x8, addend: 0x0, symName: __ZNSt3__112basic_stringIcNS_11char_traitsIcEENS_9allocatorIcEEEC1B8ue170006Ev, symObjAddr: 0xCDC, symBinAddr: 0x100038B8C, symSize: 0x2C }
  - { offsetInCU: 0x4A86, offset: 0x5F576, size: 0x8, addend: 0x0, symName: __ZL6is_argPKcS0_, symObjAddr: 0xD08, symBinAddr: 0x100038BB8, symSize: 0x118 }
  - { offsetInCU: 0x4ADC, offset: 0x5F5CC, size: 0x8, addend: 0x0, symName: __ZNSt3__112basic_stringIcNS_11char_traitsIcEENS_9allocatorIcEEEaSB8ue170006EPKc, symObjAddr: 0xE20, symBinAddr: 0x100038CD0, symSize: 0x2C }
  - { offsetInCU: 0x4B14, offset: 0x5F604, size: 0x8, addend: 0x0, symName: __ZNSt3__112basic_stringIcNS_11char_traitsIcEENS_9allocatorIcEEEpLB8ue170006EPKc, symObjAddr: 0xE80, symBinAddr: 0x100038CFC, symSize: 0x2C }
  - { offsetInCU: 0x4B47, offset: 0x5F637, size: 0x8, addend: 0x0, symName: __ZL12max_name_lenv, symObjAddr: 0xED0, symBinAddr: 0x100038D28, symSize: 0x94 }
  - { offsetInCU: 0x4B8F, offset: 0x5F67F, size: 0x8, addend: 0x0, symName: __Z6strstrB8ue170006Ua9enable_ifIXLb1EEEPKcS0_, symObjAddr: 0xF64, symBinAddr: 0x100038DBC, symSize: 0x2C }
  - { offsetInCU: 0x4BC9, offset: 0x5F6B9, size: 0x8, addend: 0x0, symName: __ZL11handle_procRK8GDrawRecPKcP7GBitmap, symObjAddr: 0xFBC, symBinAddr: 0x100038DE8, symSize: 0x184 }
  - { offsetInCU: 0x4C1B, offset: 0x5F70B, size: 0x8, addend: 0x0, symName: __ZL7compareRK7GBitmapS1_ib, symObjAddr: 0x1140, symBinAddr: 0x100038F6C, symSize: 0x33C }
  - { offsetInCU: 0x4D1A, offset: 0x5F80A, size: 0x8, addend: 0x0, symName: __ZL16add_diff_to_fileP7__sFILERK7GBitmapS3_PKcS5_, symObjAddr: 0x147C, symBinAddr: 0x1000392A8, symSize: 0x27C }
  - { offsetInCU: 0x4E38, offset: 0x5F928, size: 0x8, addend: 0x0, symName: __ZNKSt3__110unique_ptrI7GCanvasNS_14default_deleteIS1_EEEcvbB8ue170006Ev, symObjAddr: 0x1844, symBinAddr: 0x100039524, symSize: 0x34 }
  - { offsetInCU: 0x4E5C, offset: 0x5F94C, size: 0x8, addend: 0x0, symName: __ZNKSt3__110unique_ptrI7GCanvasNS_14default_deleteIS1_EEEptB8ue170006Ev, symObjAddr: 0x1878, symBinAddr: 0x100039558, symSize: 0x28 }
  - { offsetInCU: 0x4E80, offset: 0x5F970, size: 0x8, addend: 0x0, symName: __ZNKSt3__110unique_ptrI7GCanvasNS_14default_deleteIS1_EEE3getB8ue170006Ev, symObjAddr: 0x18A0, symBinAddr: 0x100039580, symSize: 0x28 }
  - { offsetInCU: 0x4EA4, offset: 0x5F994, size: 0x8, addend: 0x0, symName: __ZNSt3__110unique_ptrI7GCanvasNS_14default_deleteIS1_EEED1B8ue170006Ev, symObjAddr: 0x18C8, symBinAddr: 0x1000395A8, symSize: 0x2C }
  - { offsetInCU: 0x4ECD, offset: 0x5F9BD, size: 0x8, addend: 0x0, symName: __ZNKSt3__117__compressed_pairIP7GCanvasNS_14default_deleteIS1_EEE5firstB8ue170006Ev, symObjAddr: 0x18F4, symBinAddr: 0x1000395D4, symSize: 0x24 }
  - { offsetInCU: 0x4EF1, offset: 0x5F9E1, size: 0x8, addend: 0x0, symName: __ZNKSt3__122__compressed_pair_elemIP7GCanvasLi0ELb0EE5__getB8ue170006Ev, symObjAddr: 0x1918, symBinAddr: 0x1000395F8, symSize: 0x14 }
  - { offsetInCU: 0x4F15, offset: 0x5FA05, size: 0x8, addend: 0x0, symName: __ZNSt3__110unique_ptrI7GCanvasNS_14default_deleteIS1_EEED2B8ue170006Ev, symObjAddr: 0x192C, symBinAddr: 0x10003960C, symSize: 0x30 }
  - { offsetInCU: 0x4F3E, offset: 0x5FA2E, size: 0x8, addend: 0x0, symName: __ZNSt3__110unique_ptrI7GCanvasNS_14default_deleteIS1_EEE5resetB8ue170006EPS1_, symObjAddr: 0x195C, symBinAddr: 0x10003963C, symSize: 0x78 }
  - { offsetInCU: 0x4F80, offset: 0x5FA70, size: 0x8, addend: 0x0, symName: __ZNSt3__117__compressed_pairIP7GCanvasNS_14default_deleteIS1_EEE5firstB8ue170006Ev, symObjAddr: 0x19D4, symBinAddr: 0x1000396B4, symSize: 0x24 }
  - { offsetInCU: 0x4FA4, offset: 0x5FA94, size: 0x8, addend: 0x0, symName: __ZNSt3__117__compressed_pairIP7GCanvasNS_14default_deleteIS1_EEE6secondB8ue170006Ev, symObjAddr: 0x19F8, symBinAddr: 0x1000396D8, symSize: 0x24 }
  - { offsetInCU: 0x4FC8, offset: 0x5FAB8, size: 0x8, addend: 0x0, symName: __ZNKSt3__114default_deleteI7GCanvasEclB8ue170006EPS1_, symObjAddr: 0x1A1C, symBinAddr: 0x1000396FC, symSize: 0x4C }
  - { offsetInCU: 0x4FFA, offset: 0x5FAEA, size: 0x8, addend: 0x0, symName: __ZNSt3__122__compressed_pair_elemIP7GCanvasLi0ELb0EE5__getB8ue170006Ev, symObjAddr: 0x1A68, symBinAddr: 0x100039748, symSize: 0x14 }
  - { offsetInCU: 0x501E, offset: 0x5FB0E, size: 0x8, addend: 0x0, symName: __ZNSt3__122__compressed_pair_elemINS_14default_deleteI7GCanvasEELi1ELb1EE5__getB8ue170006Ev, symObjAddr: 0x1A7C, symBinAddr: 0x10003975C, symSize: 0x14 }
  - { offsetInCU: 0x5042, offset: 0x5FB32, size: 0x8, addend: 0x0, symName: __ZL10pixel_diffjj, symObjAddr: 0x1AC0, symBinAddr: 0x100039770, symSize: 0x104 }
  - { offsetInCU: 0x50B4, offset: 0x5FBA4, size: 0x8, addend: 0x0, symName: __ZL11GPixel_GetAj, symObjAddr: 0x1C08, symBinAddr: 0x100039874, symSize: 0x1C }
  - { offsetInCU: 0x50E0, offset: 0x5FBD0, size: 0x8, addend: 0x0, symName: __ZL11GPixel_GetRj, symObjAddr: 0x1C24, symBinAddr: 0x100039890, symSize: 0x1C }
  - { offsetInCU: 0x510C, offset: 0x5FBFC, size: 0x8, addend: 0x0, symName: __ZL11GPixel_GetGj, symObjAddr: 0x1C40, symBinAddr: 0x1000398AC, symSize: 0x1C }
  - { offsetInCU: 0x5138, offset: 0x5FC28, size: 0x8, addend: 0x0, symName: __ZL11GPixel_GetBj, symObjAddr: 0x1C5C, symBinAddr: 0x1000398C8, symSize: 0x1C }
  - { offsetInCU: 0x5164, offset: 0x5FC54, size: 0x8, addend: 0x0, symName: __ZL15GPixel_PackARGBjjjj, symObjAddr: 0x1E48, symBinAddr: 0x1000398E4, symSize: 0x134 }
  - { offsetInCU: 0x51BA, offset: 0x5FCAA, size: 0x8, addend: 0x0, symName: __ZL9add_imageP7__sFILEPKcS2_S2_RK7GBitmap, symObjAddr: 0x1F7C, symBinAddr: 0x100039A18, symSize: 0x160 }
  - { offsetInCU: 0x5236, offset: 0x5FD26, size: 0x8, addend: 0x0, symName: __ZNSt3__112basic_stringIcNS_11char_traitsIcEENS_9allocatorIcEEEpLB8ue170006ERKS5_, symObjAddr: 0x20DC, symBinAddr: 0x100039B78, symSize: 0x2C }
  - { offsetInCU: 0x5269, offset: 0x5FD59, size: 0x8, addend: 0x0, symName: __ZNSt3__112basic_stringIcNS_11char_traitsIcEENS_9allocatorIcEEE6appendB8ue170006ERKS5_, symObjAddr: 0x2108, symBinAddr: 0x100039BA4, symSize: 0x4C }
  - { offsetInCU: 0x529C, offset: 0x5FD8C, size: 0x8, addend: 0x0, symName: __ZNKSt3__112basic_stringIcNS_11char_traitsIcEENS_9allocatorIcEEE4sizeB8ue170006Ev, symObjAddr: 0x217C, symBinAddr: 0x100039BF0, symSize: 0x54 }
  - { offsetInCU: 0x52C0, offset: 0x5FDB0, size: 0x8, addend: 0x0, symName: __ZNKSt3__112basic_stringIcNS_11char_traitsIcEENS_9allocatorIcEEE15__get_long_sizeB8ue170006Ev, symObjAddr: 0x230C, symBinAddr: 0x100039C44, symSize: 0x28 }
  - { offsetInCU: 0x52E4, offset: 0x5FDD4, size: 0x8, addend: 0x0, symName: __ZNKSt3__112basic_stringIcNS_11char_traitsIcEENS_9allocatorIcEEE16__get_short_sizeB8ue170006Ev, symObjAddr: 0x2334, symBinAddr: 0x100039C6C, symSize: 0x34 }
  - { offsetInCU: 0x5308, offset: 0x5FDF8, size: 0x8, addend: 0x0, symName: __ZNSt3__112basic_stringIcNS_11char_traitsIcEENS_9allocatorIcEEEC2B8ue170006Ev, symObjAddr: 0x2570, symBinAddr: 0x100039CA0, symSize: 0x48 }
  - { offsetInCU: 0x5331, offset: 0x5FE21, size: 0x8, addend: 0x0, symName: __ZNSt3__112basic_stringIcNS_11char_traitsIcEENS_9allocatorIcEEE14__default_initB8ue170006Ev, symObjAddr: 0x25B8, symBinAddr: 0x100039CE8, symSize: 0x40 }
  - { offsetInCU: 0x5355, offset: 0x5FE45, size: 0x8, addend: 0x0, symName: __ZNSt3__117__compressed_pairINS_12basic_stringIcNS_11char_traitsIcEENS_9allocatorIcEEE5__repES5_E5firstB8ue170006Ev, symObjAddr: 0x25F8, symBinAddr: 0x100039D28, symSize: 0x24 }
  - { offsetInCU: 0x5379, offset: 0x5FE69, size: 0x8, addend: 0x0, symName: __ZNSt3__122__compressed_pair_elemINS_12basic_stringIcNS_11char_traitsIcEENS_9allocatorIcEEE5__repELi0ELb0EE5__getB8ue170006Ev, symObjAddr: 0x261C, symBinAddr: 0x100039D4C, symSize: 0x14 }
  - { offsetInCU: 0x6E, offset: 0x5FF91, size: 0x8, addend: 0x0, symName: _gDrawRecs, symObjAddr: 0x4748, symBinAddr: 0x100040C78, symSize: 0x0 }
  - { offsetInCU: 0x47FB, offset: 0x6471E, size: 0x8, addend: 0x0, symName: __Z11make_wiggleff, symObjAddr: 0x0, symBinAddr: 0x100039D60, symSize: 0x124 }
  - { offsetInCU: 0x487C, offset: 0x6479F, size: 0x8, addend: 0x0, symName: __ZNSt3__16vectorI6GPointNS_9allocatorIS1_EEE9push_backB8ue170006EOS1_, symObjAddr: 0x150, symBinAddr: 0x100039E84, symSize: 0x6C }
  - { offsetInCU: 0x48B3, offset: 0x647D6, size: 0x8, addend: 0x0, symName: __ZL11final_sweepP7GCanvas, symObjAddr: 0x20C, symBinAddr: 0x100039EF0, symSize: 0x250 }
  - { offsetInCU: 0x4965, offset: 0x64888, size: 0x8, addend: 0x0, symName: __ZL11final_coonsP7GCanvas, symObjAddr: 0x45C, symBinAddr: 0x10003A140, symSize: 0x2CC }
  - { offsetInCU: 0x49F7, offset: 0x6491A, size: 0x8, addend: 0x0, symName: __ZL16final_colormarixP7GCanvas, symObjAddr: 0x728, symBinAddr: 0x10003A40C, symSize: 0x350 }
  - { offsetInCU: 0x4B66, offset: 0x64A89, size: 0x8, addend: 0x0, symName: __ZL12final_strokeP7GCanvas, symObjAddr: 0xA78, symBinAddr: 0x10003A75C, symSize: 0x580 }
  - { offsetInCU: 0x4C05, offset: 0x64B28, size: 0x8, addend: 0x0, symName: __ZL13final_voronoiP7GCanvas, symObjAddr: 0xFF8, symBinAddr: 0x10003ACDC, symSize: 0x350 }
  - { offsetInCU: 0x4D39, offset: 0x64C5C, size: 0x8, addend: 0x0, symName: __ZL15final_linearposP7GCanvas, symObjAddr: 0x1348, symBinAddr: 0x10003B02C, symSize: 0x16C }
  - { offsetInCU: 0x4EEC, offset: 0x64E0F, size: 0x8, addend: 0x0, symName: __ZNK3Rec4drawEP7GCanvasP6GFinal, symObjAddr: 0x14B4, symBinAddr: 0x10003B198, symSize: 0x134 }
  - { offsetInCU: 0x4F79, offset: 0x64E9C, size: 0x8, addend: 0x0, symName: __ZNKSt3__110unique_ptrI6GFinalNS_14default_deleteIS1_EEE3getB8ue170006Ev, symObjAddr: 0x15E8, symBinAddr: 0x10003B2CC, symSize: 0x28 }
  - { offsetInCU: 0x4F9C, offset: 0x64EBF, size: 0x8, addend: 0x0, symName: __ZNSt3__110unique_ptrI6GFinalNS_14default_deleteIS1_EEED1B8ue170006Ev, symObjAddr: 0x1610, symBinAddr: 0x10003B2F4, symSize: 0x2C }
  - { offsetInCU: 0x4FC6, offset: 0x64EE9, size: 0x8, addend: 0x0, symName: __ZNKSt3__110unique_ptrI7GShaderNS_14default_deleteIS1_EEEcvbB8ue170006Ev, symObjAddr: 0x163C, symBinAddr: 0x10003B320, symSize: 0x34 }
  - { offsetInCU: 0x4FEA, offset: 0x64F0D, size: 0x8, addend: 0x0, symName: __ZNKSt3__117__compressed_pairIP6GFinalNS_14default_deleteIS1_EEE5firstB8ue170006Ev, symObjAddr: 0x18D4, symBinAddr: 0x10003B354, symSize: 0x24 }
  - { offsetInCU: 0x500E, offset: 0x64F31, size: 0x8, addend: 0x0, symName: __ZNKSt3__122__compressed_pair_elemIP6GFinalLi0ELb0EE5__getB8ue170006Ev, symObjAddr: 0x18F8, symBinAddr: 0x10003B378, symSize: 0x14 }
  - { offsetInCU: 0x5031, offset: 0x64F54, size: 0x8, addend: 0x0, symName: __ZNSt3__110unique_ptrI6GFinalNS_14default_deleteIS1_EEED2B8ue170006Ev, symObjAddr: 0x190C, symBinAddr: 0x10003B38C, symSize: 0x30 }
  - { offsetInCU: 0x505B, offset: 0x64F7E, size: 0x8, addend: 0x0, symName: __ZNSt3__110unique_ptrI6GFinalNS_14default_deleteIS1_EEE5resetB8ue170006EPS1_, symObjAddr: 0x193C, symBinAddr: 0x10003B3BC, symSize: 0x78 }
  - { offsetInCU: 0x509D, offset: 0x64FC0, size: 0x8, addend: 0x0, symName: __ZNSt3__117__compressed_pairIP6GFinalNS_14default_deleteIS1_EEE5firstB8ue170006Ev, symObjAddr: 0x19B4, symBinAddr: 0x10003B434, symSize: 0x24 }
  - { offsetInCU: 0x50C1, offset: 0x64FE4, size: 0x8, addend: 0x0, symName: __ZNSt3__117__compressed_pairIP6GFinalNS_14default_deleteIS1_EEE6secondB8ue170006Ev, symObjAddr: 0x19D8, symBinAddr: 0x10003B458, symSize: 0x24 }
  - { offsetInCU: 0x50E5, offset: 0x65008, size: 0x8, addend: 0x0, symName: __ZNKSt3__114default_deleteI6GFinalEclB8ue170006EPS1_, symObjAddr: 0x19FC, symBinAddr: 0x10003B47C, symSize: 0x4C }
  - { offsetInCU: 0x5117, offset: 0x6503A, size: 0x8, addend: 0x0, symName: __ZNSt3__122__compressed_pair_elemIP6GFinalLi0ELb0EE5__getB8ue170006Ev, symObjAddr: 0x1A48, symBinAddr: 0x10003B4C8, symSize: 0x14 }
  - { offsetInCU: 0x513B, offset: 0x6505E, size: 0x8, addend: 0x0, symName: __ZNSt3__122__compressed_pair_elemINS_14default_deleteI6GFinalEELi1ELb1EE5__getB8ue170006Ev, symObjAddr: 0x1A5C, symBinAddr: 0x10003B4DC, symSize: 0x14 }
  - { offsetInCU: 0x515F, offset: 0x65082, size: 0x8, addend: 0x0, symName: __ZNKSt3__110unique_ptrI6GFinalNS_14default_deleteIS1_EEEptB8ue170006Ev, symObjAddr: 0x1AF8, symBinAddr: 0x10003B4F0, symSize: 0x28 }
  - { offsetInCU: 0x5183, offset: 0x650A6, size: 0x8, addend: 0x0, symName: __ZL14make_bm_shaderPKcff, symObjAddr: 0x1B74, symBinAddr: 0x10003B518, symSize: 0x124 }
  - { offsetInCU: 0x51D9, offset: 0x650FC, size: 0x8, addend: 0x0, symName: __ZL5scalef, symObjAddr: 0x1C98, symBinAddr: 0x10003B63C, symSize: 0x60 }
  - { offsetInCU: 0x520E, offset: 0x65131, size: 0x8, addend: 0x0, symName: '__ZZL16final_colormarixP7GCanvasENK3$_0clEv', symObjAddr: 0x1CF8, symBinAddr: 0x10003B69C, symSize: 0x70 }
  - { offsetInCU: 0x5248, offset: 0x6516B, size: 0x8, addend: 0x0, symName: __ZL4grayv, symObjAddr: 0x1D68, symBinAddr: 0x10003B70C, symSize: 0x70 }
  - { offsetInCU: 0x5290, offset: 0x651B3, size: 0x8, addend: 0x0, symName: __ZL7draw_cmP6GFinalP7GCanvasRK5GRectRK12GColorMatrixP7GShader, symObjAddr: 0x1DD8, symBinAddr: 0x10003B77C, symSize: 0xC8 }
  - { offsetInCU: 0x5321, offset: 0x65244, size: 0x8, addend: 0x0, symName: __ZN7GCanvas9translateEff, symObjAddr: 0x1EA0, symBinAddr: 0x10003B844, symSize: 0x54 }
  - { offsetInCU: 0x5360, offset: 0x65283, size: 0x8, addend: 0x0, symName: __ZN12GColorMatrixC1ENSt3__15arrayIfLm20EEE, symObjAddr: 0x1EF4, symBinAddr: 0x10003B898, symSize: 0x34 }
  - { offsetInCU: 0x5398, offset: 0x652BB, size: 0x8, addend: 0x0, symName: __ZN12GColorMatrixC2ENSt3__15arrayIfLm20EEE, symObjAddr: 0x1F28, symBinAddr: 0x10003B8CC, symSize: 0x38 }
  - { offsetInCU: 0x53D1, offset: 0x652F4, size: 0x8, addend: 0x0, symName: __ZN12GColorMatrixixEj, symObjAddr: 0x1F60, symBinAddr: 0x10003B904, symSize: 0x70 }
  - { offsetInCU: 0x5403, offset: 0x65326, size: 0x8, addend: 0x0, symName: __ZNSt3__15arrayIfLm20EEixB8ue170006Em, symObjAddr: 0x1FD0, symBinAddr: 0x10003B974, symSize: 0x20 }
  - { offsetInCU: 0x5435, offset: 0x65358, size: 0x8, addend: 0x0, symName: __ZN6GPaint8setColorE6GColor, symObjAddr: 0x2074, symBinAddr: 0x10003B994, symSize: 0x2C }
  - { offsetInCU: 0x5467, offset: 0x6538A, size: 0x8, addend: 0x0, symName: __ZN6GPaint12setBlendModeE10GBlendMode, symObjAddr: 0x20A0, symBinAddr: 0x10003B9C0, symSize: 0x20 }
  - { offsetInCU: 0x5499, offset: 0x653BC, size: 0x8, addend: 0x0, symName: __ZL9make_starRNSt3__16vectorI6GPointNS_9allocatorIS1_EEEEif, symObjAddr: 0x20C0, symBinAddr: 0x10003B9E0, symSize: 0x108 }
  - { offsetInCU: 0x5515, offset: 0x65438, size: 0x8, addend: 0x0, symName: __ZN7GCanvas5scaleEff, symObjAddr: 0x21C8, symBinAddr: 0x10003BAE8, symSize: 0x54 }
  - { offsetInCU: 0x5555, offset: 0x65478, size: 0x8, addend: 0x0, symName: __ZNSt3__16vectorI6GPointNS_9allocatorIS1_EEE4dataB8ue170006Ev, symObjAddr: 0x221C, symBinAddr: 0x10003BB3C, symSize: 0x28 }
  - { offsetInCU: 0x5578, offset: 0x6549B, size: 0x8, addend: 0x0, symName: __ZNSt3__16vectorI6GPointNS_9allocatorIS1_EEEaSB8ue170006EOS4_, symObjAddr: 0x226C, symBinAddr: 0x10003BB64, symSize: 0x34 }
  - { offsetInCU: 0x55AE, offset: 0x654D1, size: 0x8, addend: 0x0, symName: __ZNSt3__16vectorI6GPointNS_9allocatorIS1_EEE13__move_assignERS4_NS_17integral_constantIbLb1EEE, symObjAddr: 0x22B4, symBinAddr: 0x10003BB98, symSize: 0x94 }
  - { offsetInCU: 0x55F0, offset: 0x65513, size: 0x8, addend: 0x0, symName: __ZNSt3__16vectorI6GPointNS_9allocatorIS1_EEE19__move_assign_allocB8ue170006ERS4_, symObjAddr: 0x23DC, symBinAddr: 0x10003BC2C, symSize: 0x2C }
  - { offsetInCU: 0x5623, offset: 0x65546, size: 0x8, addend: 0x0, symName: __ZNSt3__16vectorI6GPointNS_9allocatorIS1_EEE19__move_assign_allocB8ue170006ERS4_NS_17integral_constantIbLb1EEE, symObjAddr: 0x29C4, symBinAddr: 0x10003BC58, symSize: 0x38 }
  - { offsetInCU: 0x56F0, offset: 0x65613, size: 0x8, addend: 0x0, symName: __ZN7GRandomC1Ej, symObjAddr: 0x2A34, symBinAddr: 0x10003BC90, symSize: 0x34 }
  - { offsetInCU: 0x5728, offset: 0x6564B, size: 0x8, addend: 0x0, symName: __ZN7GRandom5nextFEv, symObjAddr: 0x2A68, symBinAddr: 0x10003BCC4, symSize: 0x38 }
  - { offsetInCU: 0x574C, offset: 0x6566F, size: 0x8, addend: 0x0, symName: __ZN7GRandomC2Ej, symObjAddr: 0x2AA0, symBinAddr: 0x10003BCFC, symSize: 0x20 }
  - { offsetInCU: 0x5783, offset: 0x656A6, size: 0x8, addend: 0x0, symName: __ZN7GRandom5nextUEv, symObjAddr: 0x2AC0, symBinAddr: 0x10003BD1C, symSize: 0x38 }
  - { offsetInCU: 0x57D7, offset: 0x656FA, size: 0x8, addend: 0x0, symName: '__ZZL15final_linearposP7GCanvasENK3$_1clEif', symObjAddr: 0x2AF8, symBinAddr: 0x10003BD54, symSize: 0x148 }
  - { offsetInCU: 0x583B, offset: 0x6575E, size: 0x8, addend: 0x0, symName: __ZNSt3__16vectorI6GPointNS_9allocatorIS1_EEE22__construct_one_at_endB8ue170006IJS1_EEEvDpOT_, symObjAddr: 0x2C40, symBinAddr: 0x10003BE9C, symSize: 0x90 }
  - { offsetInCU: 0x5887, offset: 0x657AA, size: 0x8, addend: 0x0, symName: __ZNSt3__16vectorI6GPointNS_9allocatorIS1_EEE21__push_back_slow_pathIS1_EEvOT_, symObjAddr: 0x2CD0, symBinAddr: 0x10003BF2C, symSize: 0xD8 }
  - { offsetInCU: 0x58FE, offset: 0x65821, size: 0x8, addend: 0x0, symName: __ZNSt3__116allocator_traitsINS_9allocatorI6GPointEEE9constructB8ue170006IS2_JS2_EvEEvRS3_PT_DpOT0_, symObjAddr: 0x2DE4, symBinAddr: 0x10003C004, symSize: 0x34 }
  - { offsetInCU: 0x5955, offset: 0x65878, size: 0x8, addend: 0x0, symName: __ZNSt3__19allocatorI6GPointE9constructB8ue170006IS1_JS1_EEEvPT_DpOT0_, symObjAddr: 0x2E88, symBinAddr: 0x10003C038, symSize: 0x28 }
...
